ARM GAS  /var/folders/9t/hshg14bj4r3bdmp8s0pp3jdw0000gn/T//ccxmgz9n.s 			page 1


   1              		.syntax unified
   2              		.cpu cortex-m3
   3              		.fpu softvfp
   4              		.eabi_attribute 20, 1
   5              		.eabi_attribute 21, 1
   6              		.eabi_attribute 23, 3
   7              		.eabi_attribute 24, 1
   8              		.eabi_attribute 25, 1
   9              		.eabi_attribute 26, 1
  10              		.eabi_attribute 30, 1
  11              		.eabi_attribute 34, 1
  12              		.eabi_attribute 18, 4
  13              		.thumb
  14              		.syntax unified
  15              		.file	"oled_i2c.c"
  16              		.text
  17              	.Ltext0:
  18              		.cfi_sections	.debug_frame
  19              		.section	.text.OLED_Init,"ax",%progbits
  20              		.align	2
  21              		.global	OLED_Init
  22              		.thumb
  23              		.thumb_func
  25              	OLED_Init:
  26              	.LFB65:
  27              		.file 1 "Src/oled_i2c.c"
   1:Src/oled_i2c.c **** /**
   2:Src/oled_i2c.c ****   ******************************************************************************
   3:Src/oled_i2c.c ****   * File Name          : I2C.c
   4:Src/oled_i2c.c ****   * Description        : This file provides code for the configuration
   5:Src/oled_i2c.c ****   *                      of the I2C instances.
   6:Src/oled_i2c.c ****   ******************************************************************************
   7:Src/oled_i2c.c ****   * @attention
   8:Src/oled_i2c.c ****   *
   9:Src/oled_i2c.c ****   * <h2><center>&copy; Copyright (c) 2020 STMicroelectronics.
  10:Src/oled_i2c.c ****   * All rights reserved.</center></h2>
  11:Src/oled_i2c.c ****   *
  12:Src/oled_i2c.c ****   * This software component is licensed by ST under BSD 3-Clause license,
  13:Src/oled_i2c.c ****   * the "License"; You may not use this file except in compliance with the
  14:Src/oled_i2c.c ****   * License. You may obtain a copy of the License at:
  15:Src/oled_i2c.c ****   *                        opensource.org/licenses/BSD-3-Clause
  16:Src/oled_i2c.c ****   *
  17:Src/oled_i2c.c ****   ******************************************************************************
  18:Src/oled_i2c.c ****   */
  19:Src/oled_i2c.c **** 
  20:Src/oled_i2c.c **** /* Includes ------------------------------------------------------------------*/
  21:Src/oled_i2c.c **** #include "oled_i2c.h"
  22:Src/oled_i2c.c **** #include "gpio.h"
  23:Src/oled_i2c.c **** #include "string.h"
  24:Src/oled_i2c.c **** 
  25:Src/oled_i2c.c **** void OLED_Init(void)
  26:Src/oled_i2c.c **** {
  28              		.loc 1 26 0
  29              		.cfi_startproc
  30              		@ args = 0, pretend = 0, frame = 32
  31              		@ frame_needed = 0, uses_anonymous_args = 0
  32 0000 F0B5     		push	{r4, r5, r6, r7, lr}
ARM GAS  /var/folders/9t/hshg14bj4r3bdmp8s0pp3jdw0000gn/T//ccxmgz9n.s 			page 2


  33              	.LCFI0:
  34              		.cfi_def_cfa_offset 20
  35              		.cfi_offset 4, -20
  36              		.cfi_offset 5, -16
  37              		.cfi_offset 6, -12
  38              		.cfi_offset 7, -8
  39              		.cfi_offset 14, -4
  40 0002 8DB0     		sub	sp, sp, #52
  41              	.LCFI1:
  42              		.cfi_def_cfa_offset 72
  27:Src/oled_i2c.c ****     uint8_t cmd[] = {0xAE,0x20,0x10,0xb0,0xc8,0x02,0x10,0x40,0x81,0xff,0xa1,0xa6,0xa8,0x3F,0xa4,0xd
  43              		.loc 1 27 0
  44 0004 154D     		ldr	r5, .L5
  45 0006 05AC     		add	r4, sp, #20
  46 0008 2868     		ldr	r0, [r5]	@ unaligned
  47 000a 6968     		ldr	r1, [r5, #4]	@ unaligned
  48 000c AA68     		ldr	r2, [r5, #8]	@ unaligned
  49 000e EB68     		ldr	r3, [r5, #12]	@ unaligned
  50 0010 0FC4     		stmia	r4!, {r0, r1, r2, r3}
  51 0012 2869     		ldr	r0, [r5, #16]	@ unaligned
  52 0014 6969     		ldr	r1, [r5, #20]	@ unaligned
  53 0016 AA69     		ldr	r2, [r5, #24]	@ unaligned
  54 0018 07C4     		stmia	r4!, {r0, r1, r2}
  28:Src/oled_i2c.c ****     HAL_Delay(100);
  55              		.loc 1 28 0
  56 001a 6420     		movs	r0, #100
  57 001c FFF7FEFF 		bl	HAL_Delay
  58              	.LVL0:
  59              	.LBB2:
  29:Src/oled_i2c.c ****     
  30:Src/oled_i2c.c ****     for (size_t i = 0; i < 28; i++)
  60              		.loc 1 30 0
  61 0020 0026     		movs	r6, #0
  62 0022 16E0     		b	.L2
  63              	.LVL1:
  64              	.L3:
  31:Src/oled_i2c.c ****     {
  32:Src/oled_i2c.c ****         HAL_I2C_Mem_Write(&hi2c1,0x78,0x00,I2C_MEMADD_SIZE_8BIT,&cmd[i],1,10);
  65              		.loc 1 32 0 discriminator 3
  66 0024 05AB     		add	r3, sp, #20
  67 0026 9D19     		adds	r5, r3, r6
  68 0028 0A27     		movs	r7, #10
  69 002a 0297     		str	r7, [sp, #8]
  70 002c 0124     		movs	r4, #1
  71 002e 0194     		str	r4, [sp, #4]
  72 0030 0095     		str	r5, [sp]
  73 0032 2346     		mov	r3, r4
  74 0034 0022     		movs	r2, #0
  75 0036 7821     		movs	r1, #120
  76 0038 0948     		ldr	r0, .L5+4
  77 003a FFF7FEFF 		bl	HAL_I2C_Mem_Write
  78              	.LVL2:
  33:Src/oled_i2c.c ****         HAL_I2C_Mem_Write(&hi2c2,0x78,0x00,I2C_MEMADD_SIZE_8BIT,&cmd[i],1,10);
  79              		.loc 1 33 0 discriminator 3
  80 003e 0297     		str	r7, [sp, #8]
  81 0040 0194     		str	r4, [sp, #4]
  82 0042 0095     		str	r5, [sp]
ARM GAS  /var/folders/9t/hshg14bj4r3bdmp8s0pp3jdw0000gn/T//ccxmgz9n.s 			page 3


  83 0044 2346     		mov	r3, r4
  84 0046 0022     		movs	r2, #0
  85 0048 7821     		movs	r1, #120
  86 004a 0648     		ldr	r0, .L5+8
  87 004c FFF7FEFF 		bl	HAL_I2C_Mem_Write
  88              	.LVL3:
  30:Src/oled_i2c.c ****     {
  89              		.loc 1 30 0 discriminator 3
  90 0050 2644     		add	r6, r6, r4
  91              	.LVL4:
  92              	.L2:
  30:Src/oled_i2c.c ****     {
  93              		.loc 1 30 0 is_stmt 0 discriminator 1
  94 0052 1B2E     		cmp	r6, #27
  95 0054 E6D9     		bls	.L3
  96              	.LBE2:
  34:Src/oled_i2c.c ****     }
  35:Src/oled_i2c.c **** }
  97              		.loc 1 35 0 is_stmt 1
  98 0056 0DB0     		add	sp, sp, #52
  99              	.LCFI2:
 100              		.cfi_def_cfa_offset 20
 101              		@ sp needed
 102 0058 F0BD     		pop	{r4, r5, r6, r7, pc}
 103              	.LVL5:
 104              	.L6:
 105 005a 00BF     		.align	2
 106              	.L5:
 107 005c 00000000 		.word	.LANCHOR0
 108 0060 00000000 		.word	hi2c1
 109 0064 00000000 		.word	hi2c2
 110              		.cfi_endproc
 111              	.LFE65:
 113              		.section	.text.display_ctrl,"ax",%progbits
 114              		.align	2
 115              		.global	display_ctrl
 116              		.thumb
 117              		.thumb_func
 119              	display_ctrl:
 120              	.LFB66:
  36:Src/oled_i2c.c **** 
  37:Src/oled_i2c.c **** const static uint8_t number[][16]={
  38:Src/oled_i2c.c **** {0x00,0xE0,0x10,0x08,0x08,0x10,0xE0,0x00,0x00,0x0F,0x10,0x20,0x20,0x10,0x0F,0x00},/*"0",0*/
  39:Src/oled_i2c.c **** 
  40:Src/oled_i2c.c **** {0x00,0x00,0x10,0x10,0xF8,0x00,0x00,0x00,0x00,0x00,0x20,0x20,0x3F,0x20,0x20,0x00},/*"1",1*/
  41:Src/oled_i2c.c **** 
  42:Src/oled_i2c.c **** {0x00,0x70,0x08,0x08,0x08,0x08,0xF0,0x00,0x00,0x30,0x28,0x24,0x22,0x21,0x30,0x00},/*"2",2*/
  43:Src/oled_i2c.c **** 
  44:Src/oled_i2c.c **** {0x00,0x30,0x08,0x08,0x08,0x88,0x70,0x00,0x00,0x18,0x20,0x21,0x21,0x22,0x1C,0x00},/*"3",3*/
  45:Src/oled_i2c.c **** 
  46:Src/oled_i2c.c **** {0x00,0x00,0x80,0x40,0x30,0xF8,0x00,0x00,0x00,0x06,0x05,0x24,0x24,0x3F,0x24,0x24},/*"4",4*/
  47:Src/oled_i2c.c **** 
  48:Src/oled_i2c.c **** {0x00,0xF8,0x88,0x88,0x88,0x08,0x08,0x00,0x00,0x19,0x20,0x20,0x20,0x11,0x0E,0x00},/*"5",5*/
  49:Src/oled_i2c.c **** 
  50:Src/oled_i2c.c **** {0x00,0xE0,0x10,0x88,0x88,0x90,0x00,0x00,0x00,0x0F,0x11,0x20,0x20,0x20,0x1F,0x00},/*"6",6*/
  51:Src/oled_i2c.c **** 
  52:Src/oled_i2c.c **** {0x00,0x18,0x08,0x08,0x88,0x68,0x18,0x00,0x00,0x00,0x00,0x3E,0x01,0x00,0x00,0x00},/*"7",7*/
ARM GAS  /var/folders/9t/hshg14bj4r3bdmp8s0pp3jdw0000gn/T//ccxmgz9n.s 			page 4


  53:Src/oled_i2c.c **** 
  54:Src/oled_i2c.c **** {0x00,0x70,0x88,0x08,0x08,0x88,0x70,0x00,0x00,0x1C,0x22,0x21,0x21,0x22,0x1C,0x00},/*"8",8*/
  55:Src/oled_i2c.c **** 
  56:Src/oled_i2c.c **** {0x00,0xF0,0x08,0x08,0x08,0x10,0xE0,0x00,0x00,0x01,0x12,0x22,0x22,0x11,0x0F,0x00},/*"9",9*/
  57:Src/oled_i2c.c **** };
  58:Src/oled_i2c.c **** 
  59:Src/oled_i2c.c **** static uint8_t array1[][16]=
  60:Src/oled_i2c.c **** {
  61:Src/oled_i2c.c ****     {0x00,0x00,0x00,0x00,0x00,0x00,0x00,0x00,0x00,0x00,0x00,0x00,0x00,0x00,0x00,0x00},/*" ",0*/
  62:Src/oled_i2c.c **** 
  63:Src/oled_i2c.c ****     {0xE0,0x10,0x08,0x08,0x08,0x10,0xE0,0x00,0x0F,0x10,0x20,0x20,0x20,0x10,0x0F,0x00},/*"O",1*/
  64:Src/oled_i2c.c **** 
  65:Src/oled_i2c.c ****     {0x08,0xF8,0x08,0x00,0x00,0x08,0xF8,0x08,0x00,0x1F,0x20,0x20,0x20,0x20,0x1F,0x00},/*"U",2*/
  66:Src/oled_i2c.c **** 
  67:Src/oled_i2c.c ****     {0x18,0x08,0x08,0xF8,0x08,0x08,0x18,0x00,0x00,0x00,0x20,0x3F,0x20,0x00,0x00,0x00},/*"T",3*/
  68:Src/oled_i2c.c **** 
  69:Src/oled_i2c.c ****     {0x00,0x00,0x00,0x00,0x00,0x00,0x00,0x00,0x00,0x00,0x00,0x00,0x00,0x00,0x00,0x00},/*" ",4*/
  70:Src/oled_i2c.c **** 
  71:Src/oled_i2c.c ****     {0x00,0x00,0x00,0xC0,0xC0,0x00,0x00,0x00,0x00,0x00,0x00,0x30,0x30,0x00,0x00,0x00},/*":",5*/
  72:Src/oled_i2c.c **** 
  73:Src/oled_i2c.c ****     {0x00,0x00,0x00,0x00,0x00,0x00,0x00,0x00,0x00,0x00,0x00,0x00,0x00,0x00,0x00,0x00},/*" ",6*/
  74:Src/oled_i2c.c **** 
  75:Src/oled_i2c.c ****     {0x00,0x00,0xC0,0x38,0xE0,0x00,0x00,0x00,0x20,0x3C,0x23,0x02,0x02,0x27,0x38,0x20},/*"A",7*/
  76:Src/oled_i2c.c **** 
  77:Src/oled_i2c.c ****     {0xC0,0x30,0x08,0x08,0x08,0x08,0x38,0x00,0x07,0x18,0x20,0x20,0x20,0x10,0x08,0x00},/*"C",8*/
  78:Src/oled_i2c.c **** 
  79:Src/oled_i2c.c ****     {0x00,0x00,0x00,0x00,0x00,0x00,0x00,0x00,0x00,0x00,0x00,0x00,0x00,0x00,0x00,0x00},/*" ",9*/
  80:Src/oled_i2c.c **** 
  81:Src/oled_i2c.c ****     {0x00,0xE0,0x10,0x08,0x08,0x10,0xE0,0x00,0x00,0x0F,0x10,0x20,0x20,0x10,0x0F,0x00},/*"0",10*/
  82:Src/oled_i2c.c **** 
  83:Src/oled_i2c.c ****     {0x00,0xE0,0x10,0x08,0x08,0x10,0xE0,0x00,0x00,0x0F,0x10,0x20,0x20,0x10,0x0F,0x00},/*"0",11*/
  84:Src/oled_i2c.c **** 
  85:Src/oled_i2c.c ****     {0x08,0xF8,0x08,0x00,0x00,0x08,0xF8,0x08,0x20,0x3F,0x21,0x01,0x01,0x21,0x3F,0x20},/*"H",12*/
  86:Src/oled_i2c.c **** 
  87:Src/oled_i2c.c ****     {0x00,0x80,0x80,0x80,0x80,0x80,0x80,0x00,0x00,0x21,0x30,0x2C,0x22,0x21,0x30,0x00},/*"z",13*/
  88:Src/oled_i2c.c **** 
  89:Src/oled_i2c.c ****     {0x00,0x00,0x00,0x00,0x00,0x00,0x00,0x00,0x00,0x00,0x00,0x00,0x00,0x00,0x00,0x00},/*" ",14*/
  90:Src/oled_i2c.c **** 
  91:Src/oled_i2c.c ****     {0x00,0x00,0x00,0x00,0x00,0x00,0x00,0x00,0x00,0x00,0x00,0x00,0x00,0x00,0x00,0x00},/*" ",15*/
  92:Src/oled_i2c.c **** 
  93:Src/oled_i2c.c **** 
  94:Src/oled_i2c.c ****     {0x00,0x00,0x00,0x00,0x00,0x00,0x00,0x00,0x00,0x00,0x00,0x00,0x00,0x00,0x00,0x00},/*" ",16*/
  95:Src/oled_i2c.c **** 
  96:Src/oled_i2c.c ****     {0x08,0x78,0x88,0x00,0x00,0xC8,0x38,0x08,0x00,0x00,0x07,0x38,0x0E,0x01,0x00,0x00},/*"V",17*/
  97:Src/oled_i2c.c **** 
  98:Src/oled_i2c.c ****     {0xE0,0x10,0x08,0x08,0x08,0x10,0xE0,0x00,0x0F,0x10,0x20,0x20,0x20,0x10,0x0F,0x00},/*"O",18*/
  99:Src/oled_i2c.c **** 
 100:Src/oled_i2c.c ****     {0x08,0xF8,0x08,0x00,0x00,0x00,0x00,0x00,0x20,0x3F,0x20,0x20,0x20,0x20,0x30,0x00},/*"L",19*/
 101:Src/oled_i2c.c **** 
 102:Src/oled_i2c.c ****     {0x00,0x00,0x00,0x00,0x00,0x00,0x00,0x00,0x00,0x00,0x00,0x00,0x00,0x00,0x00,0x00},/*" ",20*/
 103:Src/oled_i2c.c **** 
 104:Src/oled_i2c.c ****     {0x00,0x00,0x00,0xC0,0xC0,0x00,0x00,0x00,0x00,0x00,0x00,0x30,0x30,0x00,0x00,0x00},/*":",21*/
 105:Src/oled_i2c.c **** 
 106:Src/oled_i2c.c ****     {0x00,0x00,0x00,0x00,0x00,0x00,0x00,0x00,0x00,0x00,0x00,0x00,0x00,0x00,0x00,0x00},/*" ",22*/
 107:Src/oled_i2c.c **** 
 108:Src/oled_i2c.c ****     {0x00,0xE0,0x10,0x08,0x08,0x10,0xE0,0x00,0x00,0x0F,0x10,0x20,0x20,0x10,0x0F,0x00},/*"0",23*/
 109:Src/oled_i2c.c **** 
ARM GAS  /var/folders/9t/hshg14bj4r3bdmp8s0pp3jdw0000gn/T//ccxmgz9n.s 			page 5


 110:Src/oled_i2c.c ****     {0x00,0xE0,0x10,0x08,0x08,0x10,0xE0,0x00,0x00,0x0F,0x10,0x20,0x20,0x10,0x0F,0x00},/*"0",24*/
 111:Src/oled_i2c.c **** 
 112:Src/oled_i2c.c ****     {0x00,0xE0,0x10,0x08,0x08,0x10,0xE0,0x00,0x00,0x0F,0x10,0x20,0x20,0x10,0x0F,0x00},/*"0",25*/
 113:Src/oled_i2c.c **** 
 114:Src/oled_i2c.c ****     {0x00,0x00,0x00,0x00,0x00,0x00,0x00,0x00,0x00,0x00,0x00,0x00,0x00,0x00,0x00,0x00},/*" ",26*/
 115:Src/oled_i2c.c **** 
 116:Src/oled_i2c.c ****     {0x00,0x00,0x00,0x00,0x00,0x00,0x00,0x00,0x00,0x00,0x00,0x00,0x00,0x00,0x00,0x00},/*" ",27*/
 117:Src/oled_i2c.c **** 
 118:Src/oled_i2c.c ****     {0x08,0x78,0x88,0x00,0x00,0xC8,0x38,0x08,0x00,0x00,0x07,0x38,0x0E,0x01,0x00,0x00},/*"V",28*/
 119:Src/oled_i2c.c **** 
 120:Src/oled_i2c.c ****     {0x00,0x00,0x00,0x00,0x00,0x00,0x00,0x00,0x00,0x00,0x00,0x00,0x00,0x00,0x00,0x00},/*" ",29*/
 121:Src/oled_i2c.c **** 
 122:Src/oled_i2c.c ****     {0x00,0x00,0x00,0x00,0x00,0x00,0x00,0x00,0x00,0x00,0x00,0x00,0x00,0x00,0x00,0x00},/*" ",30*/
 123:Src/oled_i2c.c **** 
 124:Src/oled_i2c.c ****     {0x00,0x00,0x00,0x00,0x00,0x00,0x00,0x00,0x00,0x00,0x00,0x00,0x00,0x00,0x00,0x00},/*" ",31*/
 125:Src/oled_i2c.c **** 
 126:Src/oled_i2c.c **** 
 127:Src/oled_i2c.c ****     {0x00,0x00,0x00,0x00,0x00,0x00,0x00,0x00,0x00,0x00,0x00,0x00,0x00,0x00,0x00,0x00},/*" ",32*/
 128:Src/oled_i2c.c **** 
 129:Src/oled_i2c.c ****     {0x08,0xF8,0x08,0x08,0x08,0x08,0xF0,0x00,0x20,0x3F,0x21,0x01,0x01,0x01,0x00,0x00},/*"P",33*/
 130:Src/oled_i2c.c **** 
 131:Src/oled_i2c.c ****     {0xE0,0x10,0x08,0x08,0x08,0x10,0xE0,0x00,0x0F,0x10,0x20,0x20,0x20,0x10,0x0F,0x00},/*"O",34*/
 132:Src/oled_i2c.c **** 
 133:Src/oled_i2c.c ****     {0x08,0xF8,0x00,0xF8,0x00,0xF8,0x08,0x00,0x00,0x03,0x3E,0x01,0x3E,0x03,0x00,0x00},/*"W",35*/
 134:Src/oled_i2c.c **** 
 135:Src/oled_i2c.c ****     {0x00,0x00,0x00,0x00,0x00,0x00,0x00,0x00,0x00,0x00,0x00,0x00,0x00,0x00,0x00,0x00},/*" ",36*/
 136:Src/oled_i2c.c **** 
 137:Src/oled_i2c.c ****     {0x00,0x00,0x00,0xC0,0xC0,0x00,0x00,0x00,0x00,0x00,0x00,0x30,0x30,0x00,0x00,0x00},/*":",37*/
 138:Src/oled_i2c.c **** 
 139:Src/oled_i2c.c ****     {0x00,0x00,0x00,0x00,0x00,0x00,0x00,0x00,0x00,0x00,0x00,0x00,0x00,0x00,0x00,0x00},/*" ",38*/
 140:Src/oled_i2c.c **** 
 141:Src/oled_i2c.c ****     {0x00,0xE0,0x10,0x08,0x08,0x10,0xE0,0x00,0x00,0x0F,0x10,0x20,0x20,0x10,0x0F,0x00},/*"0",39*/
 142:Src/oled_i2c.c **** 
 143:Src/oled_i2c.c ****     {0x00,0xE0,0x10,0x08,0x08,0x10,0xE0,0x00,0x00,0x0F,0x10,0x20,0x20,0x10,0x0F,0x00},/*"0",40*/
 144:Src/oled_i2c.c **** 
 145:Src/oled_i2c.c ****     {0x00,0xE0,0x10,0x08,0x08,0x10,0xE0,0x00,0x00,0x0F,0x10,0x20,0x20,0x10,0x0F,0x00},/*"0",41*/
 146:Src/oled_i2c.c **** 
 147:Src/oled_i2c.c ****     {0x00,0xE0,0x10,0x08,0x08,0x10,0xE0,0x00,0x00,0x0F,0x10,0x20,0x20,0x10,0x0F,0x00},/*"0",42*/
 148:Src/oled_i2c.c **** 
 149:Src/oled_i2c.c ****     {0x00,0x00,0x00,0x00,0x00,0x00,0x00,0x00,0x00,0x00,0x00,0x00,0x00,0x00,0x00,0x00},/*" ",43*/
 150:Src/oled_i2c.c **** 
 151:Src/oled_i2c.c ****     {0x08,0xF8,0x00,0xF8,0x00,0xF8,0x08,0x00,0x00,0x03,0x3E,0x01,0x3E,0x03,0x00,0x00},/*"W",44*/
 152:Src/oled_i2c.c **** 
 153:Src/oled_i2c.c ****     {0x00,0x00,0x00,0x00,0x00,0x00,0x00,0x00,0x00,0x00,0x00,0x00,0x00,0x00,0x00,0x00},/*" ",45*/
 154:Src/oled_i2c.c **** 
 155:Src/oled_i2c.c ****     {0x00,0x00,0x00,0x00,0x00,0x00,0x00,0x00,0x00,0x00,0x00,0x00,0x00,0x00,0x00,0x00},/*" ",46*/
 156:Src/oled_i2c.c **** 
 157:Src/oled_i2c.c ****     {0x00,0x00,0x00,0x00,0x00,0x00,0x00,0x00,0x00,0x00,0x00,0x00,0x00,0x00,0x00,0x00},/*" ",47*/
 158:Src/oled_i2c.c **** 
 159:Src/oled_i2c.c **** 
 160:Src/oled_i2c.c ****     {0x00,0x00,0x00,0x00,0x00,0x00,0x00,0x00,0x00,0x00,0x00,0x00,0x00,0x00,0x00,0x00},/*" ",48*/
 161:Src/oled_i2c.c **** 
 162:Src/oled_i2c.c ****     {0x00,0x70,0x88,0x08,0x08,0x08,0x38,0x00,0x00,0x38,0x20,0x21,0x21,0x22,0x1C,0x00},/*"S",49*/
 163:Src/oled_i2c.c **** 
 164:Src/oled_i2c.c ****     {0x08,0xF8,0x88,0x88,0xE8,0x08,0x10,0x00,0x20,0x3F,0x20,0x20,0x23,0x20,0x18,0x00},/*"E",50*/
 165:Src/oled_i2c.c **** 
 166:Src/oled_i2c.c ****     {0x18,0x08,0x08,0xF8,0x08,0x08,0x18,0x00,0x00,0x00,0x20,0x3F,0x20,0x00,0x00,0x00},/*"T",51*/
ARM GAS  /var/folders/9t/hshg14bj4r3bdmp8s0pp3jdw0000gn/T//ccxmgz9n.s 			page 6


 167:Src/oled_i2c.c **** 
 168:Src/oled_i2c.c ****     {0x00,0x00,0x00,0x00,0x00,0x00,0x00,0x00,0x00,0x00,0x00,0x00,0x00,0x00,0x00,0x00},/*" ",52*/
 169:Src/oled_i2c.c **** 
 170:Src/oled_i2c.c ****     {0x00,0x00,0x00,0xC0,0xC0,0x00,0x00,0x00,0x00,0x00,0x00,0x30,0x30,0x00,0x00,0x00},/*":",53*/
 171:Src/oled_i2c.c **** 
 172:Src/oled_i2c.c ****     {0x00,0x00,0x00,0x00,0x00,0x00,0x00,0x00,0x00,0x00,0x00,0x00,0x00,0x00,0x00,0x00},/*" ",54*/
 173:Src/oled_i2c.c **** 
 174:Src/oled_i2c.c ****     {0x00,0xE0,0x10,0x08,0x08,0x10,0xE0,0x00,0x00,0x0F,0x10,0x20,0x20,0x10,0x0F,0x00},/*"0",55*/
 175:Src/oled_i2c.c **** 
 176:Src/oled_i2c.c ****     {0x00,0xE0,0x10,0x08,0x08,0x10,0xE0,0x00,0x00,0x0F,0x10,0x20,0x20,0x10,0x0F,0x00},/*"0",56*/
 177:Src/oled_i2c.c **** 
 178:Src/oled_i2c.c ****     {0x00,0xE0,0x10,0x08,0x08,0x10,0xE0,0x00,0x00,0x0F,0x10,0x20,0x20,0x10,0x0F,0x00},/*"0",57*/
 179:Src/oled_i2c.c **** 
 180:Src/oled_i2c.c ****     {0x00,0xE0,0x10,0x08,0x08,0x10,0xE0,0x00,0x00,0x0F,0x10,0x20,0x20,0x10,0x0F,0x00},/*"0",58*/
 181:Src/oled_i2c.c **** 
 182:Src/oled_i2c.c ****     {0x00,0x00,0x00,0x00,0x00,0x00,0x00,0x00,0x00,0x00,0x00,0x00,0x00,0x00,0x00,0x00},/*" ",59*/
 183:Src/oled_i2c.c **** 
 184:Src/oled_i2c.c ****     {0x08,0xF8,0x00,0xF8,0x00,0xF8,0x08,0x00,0x00,0x03,0x3E,0x01,0x3E,0x03,0x00,0x00},/*"W",60*/
 185:Src/oled_i2c.c **** 
 186:Src/oled_i2c.c ****     {0x00,0x00,0x00,0x00,0x00,0x00,0x00,0x00,0x00,0x00,0x00,0x00,0x00,0x00,0x00,0x00},/*" ",61*/
 187:Src/oled_i2c.c **** 
 188:Src/oled_i2c.c ****     {0x00,0x00,0x00,0x00,0x00,0x00,0x00,0x00,0x00,0x00,0x00,0x00,0x00,0x00,0x00,0x00},/*" ",62*/
 189:Src/oled_i2c.c **** 
 190:Src/oled_i2c.c ****     {0x00,0x00,0x00,0x00,0x00,0x00,0x00,0x00,0x00,0x00,0x00,0x00,0x00,0x00,0x00,0x00},/*" ",63*/
 191:Src/oled_i2c.c **** };
 192:Src/oled_i2c.c **** 
 193:Src/oled_i2c.c **** static uint8_t array2[][16]=
 194:Src/oled_i2c.c **** {
 195:Src/oled_i2c.c ****     {0x00,0x00,0x00,0x00,0x00,0x00,0x00,0x00,0x00,0x00,0x00,0x00,0x00,0x00,0x00,0x00},/*" ",61*/
 196:Src/oled_i2c.c ****     {0x00,0x00,0x00,0x00,0x00,0x00,0x00,0x00,0x00,0x00,0x00,0x00,0x00,0x00,0x00,0x00},/*" ",61*/
 197:Src/oled_i2c.c ****     {0x00,0x00,0x00,0x00,0x00,0x00,0x00,0x00,0x00,0x00,0x00,0x00,0x00,0x00,0x00,0x00},/*" ",61*/
 198:Src/oled_i2c.c ****     {0x00,0x00,0x00,0x00,0x00,0x00,0x00,0x00,0x00,0x00,0x00,0x00,0x00,0x00,0x00,0x00},/*" ",61*/
 199:Src/oled_i2c.c ****     {0x00,0x00,0x00,0x00,0x00,0x00,0x00,0x00,0x00,0x00,0x00,0x00,0x00,0x00,0x00,0x00},/*" ",61*/
 200:Src/oled_i2c.c ****     {0x00,0x00,0x00,0x00,0x00,0x00,0x00,0x00,0x00,0x00,0x00,0x00,0x00,0x00,0x00,0x00},/*" ",61*/
 201:Src/oled_i2c.c ****     {0x00,0x00,0x00,0x00,0x00,0x00,0x00,0x00,0x00,0x00,0x00,0x00,0x00,0x00,0x00,0x00},/*" ",61*/
 202:Src/oled_i2c.c ****     {0x00,0x00,0x00,0x00,0x00,0x00,0x00,0x00,0x00,0x00,0x00,0x00,0x00,0x00,0x00,0x00},/*" ",61*/
 203:Src/oled_i2c.c ****     {0x00,0x00,0x00,0x00,0x00,0x00,0x00,0x00,0x00,0x00,0x00,0x00,0x00,0x00,0x00,0x00},/*" ",61*/
 204:Src/oled_i2c.c ****     {0x00,0x00,0x00,0x00,0x00,0x00,0x00,0x00,0x00,0x00,0x00,0x00,0x00,0x00,0x00,0x00},/*" ",61*/
 205:Src/oled_i2c.c ****     {0x00,0x00,0x00,0x00,0x00,0x00,0x00,0x00,0x00,0x00,0x00,0x00,0x00,0x00,0x00,0x00},/*" ",61*/
 206:Src/oled_i2c.c ****     {0x00,0x00,0x00,0x00,0x00,0x00,0x00,0x00,0x00,0x00,0x00,0x00,0x00,0x00,0x00,0x00},/*" ",61*/
 207:Src/oled_i2c.c ****     {0x00,0x00,0x00,0x00,0x00,0x00,0x00,0x00,0x00,0x00,0x00,0x00,0x00,0x00,0x00,0x00},/*" ",61*/
 208:Src/oled_i2c.c ****     {0x00,0x00,0x00,0x00,0x00,0x00,0x00,0x00,0x00,0x00,0x00,0x00,0x00,0x00,0x00,0x00},/*" ",61*/
 209:Src/oled_i2c.c ****     {0x00,0x00,0x00,0x00,0x00,0x00,0x00,0x00,0x00,0x00,0x00,0x00,0x00,0x00,0x00,0x00},/*" ",61*/
 210:Src/oled_i2c.c ****     {0x00,0x00,0x00,0x00,0x00,0x00,0x00,0x00,0x00,0x00,0x00,0x00,0x00,0x00,0x00,0x00},/*" ",61*/
 211:Src/oled_i2c.c **** 
 212:Src/oled_i2c.c ****     {0x00,0x00,0x00,0x00,0x00,0x00,0x00,0x00,0x00,0x00,0x00,0x00,0x00,0x00,0x00,0x00},/*" ",0*/
 213:Src/oled_i2c.c **** 
 214:Src/oled_i2c.c ****     {0xE0,0x10,0x08,0x08,0x08,0x10,0xE0,0x00,0x0F,0x10,0x20,0x20,0x20,0x10,0x0F,0x00},/*"O",1*/
 215:Src/oled_i2c.c **** 
 216:Src/oled_i2c.c ****     {0x08,0x78,0x88,0x00,0x00,0xC8,0x38,0x08,0x00,0x00,0x07,0x38,0x0E,0x01,0x00,0x00},/*"V",2*/
 217:Src/oled_i2c.c **** 
 218:Src/oled_i2c.c ****     {0x08,0xF8,0x88,0x88,0xE8,0x08,0x10,0x00,0x20,0x3F,0x20,0x20,0x23,0x20,0x18,0x00},/*"E",3*/
 219:Src/oled_i2c.c **** 
 220:Src/oled_i2c.c ****     {0x08,0xF8,0x88,0x88,0x88,0x88,0x70,0x00,0x20,0x3F,0x20,0x00,0x03,0x0C,0x30,0x20},/*"R",4*/
 221:Src/oled_i2c.c **** 
 222:Src/oled_i2c.c ****     {0x00,0x00,0x00,0x00,0x00,0x00,0x00,0x00,0x00,0x90,0x70,0x00,0x00,0x00,0x00,0x00},/*",",5*/
 223:Src/oled_i2c.c **** 
ARM GAS  /var/folders/9t/hshg14bj4r3bdmp8s0pp3jdw0000gn/T//ccxmgz9n.s 			page 7


 224:Src/oled_i2c.c ****     {0x08,0xF8,0x08,0x08,0x08,0x08,0xF0,0x00,0x20,0x3F,0x21,0x01,0x01,0x01,0x00,0x00},/*"P",6*/
 225:Src/oled_i2c.c **** 
 226:Src/oled_i2c.c ****     {0xE0,0x10,0x08,0x08,0x08,0x10,0xE0,0x00,0x0F,0x10,0x20,0x20,0x20,0x10,0x0F,0x00},/*"O",7*/
 227:Src/oled_i2c.c **** 
 228:Src/oled_i2c.c ****     {0x08,0xF8,0x00,0xF8,0x00,0xF8,0x08,0x00,0x00,0x03,0x3E,0x01,0x3E,0x03,0x00,0x00},/*"W",8*/
 229:Src/oled_i2c.c **** 
 230:Src/oled_i2c.c ****     {0x08,0xF8,0x88,0x88,0xE8,0x08,0x10,0x00,0x20,0x3F,0x20,0x20,0x23,0x20,0x18,0x00},/*"E",9*/
 231:Src/oled_i2c.c **** 
 232:Src/oled_i2c.c ****     {0x08,0xF8,0x88,0x88,0x88,0x88,0x70,0x00,0x20,0x3F,0x20,0x00,0x03,0x0C,0x30,0x20},/*"R",10*/
 233:Src/oled_i2c.c ****     {0x00,0x00,0x00,0x00,0x00,0x00,0x00,0x00,0x00,0x00,0x00,0x00,0x00,0x00,0x00,0x00},/*" ",61*/
 234:Src/oled_i2c.c ****     {0x00,0x00,0x00,0x00,0x00,0x00,0x00,0x00,0x00,0x00,0x00,0x00,0x00,0x00,0x00,0x00},/*" ",61*/
 235:Src/oled_i2c.c ****     {0x00,0x00,0x00,0x00,0x00,0x00,0x00,0x00,0x00,0x00,0x00,0x00,0x00,0x00,0x00,0x00},/*" ",61*/
 236:Src/oled_i2c.c ****     {0x00,0x00,0x00,0x00,0x00,0x00,0x00,0x00,0x00,0x00,0x00,0x00,0x00,0x00,0x00,0x00},/*" ",61*/
 237:Src/oled_i2c.c ****     {0x00,0x00,0x00,0x00,0x00,0x00,0x00,0x00,0x00,0x00,0x00,0x00,0x00,0x00,0x00,0x00},/*" ",61*/
 238:Src/oled_i2c.c **** 
 239:Src/oled_i2c.c ****     {0x00,0x00,0x00,0x00,0x00,0x00,0x00,0x00,0x00,0x00,0x00,0x00,0x00,0x00,0x00,0x00},/*" ",11*/
 240:Src/oled_i2c.c **** 
 241:Src/oled_i2c.c ****     {0x08,0xF8,0x08,0x08,0x08,0x08,0xF0,0x00,0x20,0x3F,0x21,0x01,0x01,0x01,0x00,0x00},/*"P",12*/
 242:Src/oled_i2c.c **** 
 243:Src/oled_i2c.c ****     {0x08,0xF8,0x08,0x00,0x00,0x00,0x00,0x00,0x20,0x3F,0x20,0x20,0x20,0x20,0x30,0x00},/*"L",13*/
 244:Src/oled_i2c.c **** 
 245:Src/oled_i2c.c ****     {0x08,0xF8,0x88,0x88,0xE8,0x08,0x10,0x00,0x20,0x3F,0x20,0x20,0x23,0x20,0x18,0x00},/*"E",14*/
 246:Src/oled_i2c.c **** 
 247:Src/oled_i2c.c ****     {0x00,0x00,0xC0,0x38,0xE0,0x00,0x00,0x00,0x20,0x3C,0x23,0x02,0x02,0x27,0x38,0x20},/*"A",15*/
 248:Src/oled_i2c.c **** 
 249:Src/oled_i2c.c ****     {0x00,0x70,0x88,0x08,0x08,0x08,0x38,0x00,0x00,0x38,0x20,0x21,0x21,0x22,0x1C,0x00},/*"S",16*/
 250:Src/oled_i2c.c **** 
 251:Src/oled_i2c.c ****     {0x08,0xF8,0x88,0x88,0xE8,0x08,0x10,0x00,0x20,0x3F,0x20,0x20,0x23,0x20,0x18,0x00},/*"E",17*/
 252:Src/oled_i2c.c **** 
 253:Src/oled_i2c.c ****     {0x00,0x00,0x00,0x00,0x00,0x00,0x00,0x00,0x00,0x90,0x70,0x00,0x00,0x00,0x00,0x00},/*",",18*/
 254:Src/oled_i2c.c **** 
 255:Src/oled_i2c.c ****     {0x00,0x00,0x00,0x00,0x00,0x00,0x00,0x00,0x00,0x00,0x00,0x00,0x00,0x00,0x00,0x00},/*" ",19*/
 256:Src/oled_i2c.c **** 
 257:Src/oled_i2c.c ****     {0x08,0xF8,0x88,0x88,0x88,0x88,0x70,0x00,0x20,0x3F,0x20,0x00,0x03,0x0C,0x30,0x20},/*"R",20*/
 258:Src/oled_i2c.c **** 
 259:Src/oled_i2c.c ****     {0x08,0xF8,0x88,0x88,0xE8,0x08,0x10,0x00,0x20,0x3F,0x20,0x20,0x23,0x20,0x18,0x00},/*"E",21*/
 260:Src/oled_i2c.c **** 
 261:Src/oled_i2c.c ****     {0x00,0x70,0x88,0x08,0x08,0x08,0x38,0x00,0x00,0x38,0x20,0x21,0x21,0x22,0x1C,0x00},/*"S",22*/
 262:Src/oled_i2c.c **** 
 263:Src/oled_i2c.c ****     {0x08,0xF8,0x88,0x88,0xE8,0x08,0x10,0x00,0x20,0x3F,0x20,0x20,0x23,0x20,0x18,0x00},/*"E",23*/
 264:Src/oled_i2c.c **** 
 265:Src/oled_i2c.c ****     {0x18,0x08,0x08,0xF8,0x08,0x08,0x18,0x00,0x00,0x00,0x20,0x3F,0x20,0x00,0x00,0x00},/*"T",24*/
 266:Src/oled_i2c.c **** 
 267:Src/oled_i2c.c ****     {0x00,0x00,0x00,0xF8,0x00,0x00,0x00,0x00,0x00,0x00,0x00,0x33,0x00,0x00,0x00,0x00},/*"!",25*/
 268:Src/oled_i2c.c **** 
 269:Src/oled_i2c.c ****     {0x00,0x00,0x00,0xF8,0x00,0x00,0x00,0x00,0x00,0x00,0x00,0x33,0x00,0x00,0x00,0x00},/*"!",26*/
 270:Src/oled_i2c.c **** 
 271:Src/oled_i2c.c ****     {0x00,0x00,0x00,0x00,0x00,0x00,0x00,0x00,0x00,0x00,0x00,0x00,0x00,0x00,0x00,0x00},/*" ",61*/
 272:Src/oled_i2c.c ****     {0x00,0x00,0x00,0x00,0x00,0x00,0x00,0x00,0x00,0x00,0x00,0x00,0x00,0x00,0x00,0x00},/*" ",61*/
 273:Src/oled_i2c.c ****     {0x00,0x00,0x00,0x00,0x00,0x00,0x00,0x00,0x00,0x00,0x00,0x00,0x00,0x00,0x00,0x00},/*" ",61*/
 274:Src/oled_i2c.c ****     {0x00,0x00,0x00,0x00,0x00,0x00,0x00,0x00,0x00,0x00,0x00,0x00,0x00,0x00,0x00,0x00},/*" ",61*/
 275:Src/oled_i2c.c ****     {0x00,0x00,0x00,0x00,0x00,0x00,0x00,0x00,0x00,0x00,0x00,0x00,0x00,0x00,0x00,0x00},/*" ",61*/
 276:Src/oled_i2c.c ****     {0x00,0x00,0x00,0x00,0x00,0x00,0x00,0x00,0x00,0x00,0x00,0x00,0x00,0x00,0x00,0x00},/*" ",61*/
 277:Src/oled_i2c.c ****     {0x00,0x00,0x00,0x00,0x00,0x00,0x00,0x00,0x00,0x00,0x00,0x00,0x00,0x00,0x00,0x00},/*" ",61*/
 278:Src/oled_i2c.c ****     {0x00,0x00,0x00,0x00,0x00,0x00,0x00,0x00,0x00,0x00,0x00,0x00,0x00,0x00,0x00,0x00},/*" ",61*/
 279:Src/oled_i2c.c ****     {0x00,0x00,0x00,0x00,0x00,0x00,0x00,0x00,0x00,0x00,0x00,0x00,0x00,0x00,0x00,0x00},/*" ",61*/
 280:Src/oled_i2c.c ****     {0x00,0x00,0x00,0x00,0x00,0x00,0x00,0x00,0x00,0x00,0x00,0x00,0x00,0x00,0x00,0x00},/*" ",61*/
ARM GAS  /var/folders/9t/hshg14bj4r3bdmp8s0pp3jdw0000gn/T//ccxmgz9n.s 			page 8


 281:Src/oled_i2c.c ****     {0x00,0x00,0x00,0x00,0x00,0x00,0x00,0x00,0x00,0x00,0x00,0x00,0x00,0x00,0x00,0x00},/*" ",61*/
 282:Src/oled_i2c.c ****     {0x00,0x00,0x00,0x00,0x00,0x00,0x00,0x00,0x00,0x00,0x00,0x00,0x00,0x00,0x00,0x00},/*" ",61*/
 283:Src/oled_i2c.c ****     {0x00,0x00,0x00,0x00,0x00,0x00,0x00,0x00,0x00,0x00,0x00,0x00,0x00,0x00,0x00,0x00},/*" ",61*/
 284:Src/oled_i2c.c ****     {0x00,0x00,0x00,0x00,0x00,0x00,0x00,0x00,0x00,0x00,0x00,0x00,0x00,0x00,0x00,0x00},/*" ",61*/
 285:Src/oled_i2c.c ****     {0x00,0x00,0x00,0x00,0x00,0x00,0x00,0x00,0x00,0x00,0x00,0x00,0x00,0x00,0x00,0x00},/*" ",61*/
 286:Src/oled_i2c.c ****     {0x00,0x00,0x00,0x00,0x00,0x00,0x00,0x00,0x00,0x00,0x00,0x00,0x00,0x00,0x00,0x00},/*" ",61*/
 287:Src/oled_i2c.c **** };
 288:Src/oled_i2c.c **** 
 289:Src/oled_i2c.c **** void display_ctrl(I2C_HandleTypeDef *hi2c, uint32_t adc_val, __IO uint8_t *uart_array)
 290:Src/oled_i2c.c **** {   
 121              		.loc 1 290 0
 122              		.cfi_startproc
 123              		@ args = 0, pretend = 0, frame = 8
 124              		@ frame_needed = 0, uses_anonymous_args = 0
 125              	.LVL6:
 126 0000 2DE9F04F 		push	{r4, r5, r6, r7, r8, r9, r10, fp, lr}
 127              	.LCFI3:
 128              		.cfi_def_cfa_offset 36
 129              		.cfi_offset 4, -36
 130              		.cfi_offset 5, -32
 131              		.cfi_offset 6, -28
 132              		.cfi_offset 7, -24
 133              		.cfi_offset 8, -20
 134              		.cfi_offset 9, -16
 135              		.cfi_offset 10, -12
 136              		.cfi_offset 11, -8
 137              		.cfi_offset 14, -4
 138 0004 87B0     		sub	sp, sp, #28
 139              	.LCFI4:
 140              		.cfi_def_cfa_offset 64
 141 0006 0446     		mov	r4, r0
 291:Src/oled_i2c.c ****     uint8_t data1 = 0x02, data2 = 0x10;
 142              		.loc 1 291 0
 143 0008 0223     		movs	r3, #2
 144 000a 8DF81730 		strb	r3, [sp, #23]
 145 000e 1023     		movs	r3, #16
 146 0010 8DF81630 		strb	r3, [sp, #22]
 292:Src/oled_i2c.c ****     uint8_t data_b = 0x00;
 147              		.loc 1 292 0
 148 0014 0023     		movs	r3, #0
 149 0016 8DF81530 		strb	r3, [sp, #21]
 150              	.LVL7:
 293:Src/oled_i2c.c ****     uint8_t m = 0,n = 0;
 294:Src/oled_i2c.c ****     uint32_t adc_offset = (adc_val / 21) * 10;
 151              		.loc 1 294 0
 152 001a D24B     		ldr	r3, .L23
 153 001c A3FB0103 		umull	r0, r3, r3, r1
 154              	.LVL8:
 155 0020 C91A     		subs	r1, r1, r3
 156              	.LVL9:
 157 0022 03EB5103 		add	r3, r3, r1, lsr #1
 158 0026 1B09     		lsrs	r3, r3, #4
 159 0028 03EB8303 		add	r3, r3, r3, lsl #2
 160 002c 4FEA4309 		lsl	r9, r3, #1
 161              	.LVL10:
 295:Src/oled_i2c.c ****     uint16_t vol = 0x00;
 296:Src/oled_i2c.c ****     uint32_t pow = 0x00;
ARM GAS  /var/folders/9t/hshg14bj4r3bdmp8s0pp3jdw0000gn/T//ccxmgz9n.s 			page 9


 297:Src/oled_i2c.c ****     uint32_t out = 0x00;
 298:Src/oled_i2c.c ****     static uint8_t err_1 = 0x00, err_2 = 0x00;
 299:Src/oled_i2c.c **** 
 300:Src/oled_i2c.c ****     if (uart_array != NULL)
 162              		.loc 1 300 0
 163 0030 F2B1     		cbz	r2, .L21
 164 0032 1146     		mov	r1, r2
 301:Src/oled_i2c.c ****     {
 302:Src/oled_i2c.c ****         vol = ((uart_array[3] << 8) + uart_array[4]) / 10;
 165              		.loc 1 302 0
 166 0034 D278     		ldrb	r2, [r2, #3]	@ zero_extendqisi2
 167              	.LVL11:
 168 0036 0B79     		ldrb	r3, [r1, #4]	@ zero_extendqisi2
 169 0038 03EB0223 		add	r3, r3, r2, lsl #8
 170 003c CA4A     		ldr	r2, .L23+4
 171 003e 82FB0307 		smull	r0, r7, r2, r3
 172 0042 DB17     		asrs	r3, r3, #31
 173 0044 C3EBA707 		rsb	r7, r3, r7, asr #2
 174 0048 BFB2     		uxth	r7, r7
 175              	.LVL12:
 303:Src/oled_i2c.c ****         pow = ((uart_array[9] << 8) + uart_array[10]) / 10;
 176              		.loc 1 303 0
 177 004a 487A     		ldrb	r0, [r1, #9]	@ zero_extendqisi2
 178 004c 8B7A     		ldrb	r3, [r1, #10]	@ zero_extendqisi2
 179 004e 03EB0023 		add	r3, r3, r0, lsl #8
 180 0052 82FB0308 		smull	r0, r8, r2, r3
 181 0056 DB17     		asrs	r3, r3, #31
 182 0058 C3EBA808 		rsb	r8, r3, r8, asr #2
 183              	.LVL13:
 304:Src/oled_i2c.c ****         out = ((uart_array[17] << 8) + uart_array[18]) / 10;
 184              		.loc 1 304 0
 185 005c 487C     		ldrb	r0, [r1, #17]	@ zero_extendqisi2
 186 005e 8B7C     		ldrb	r3, [r1, #18]	@ zero_extendqisi2
 187 0060 03EB0023 		add	r3, r3, r0, lsl #8
 188 0064 82FB0312 		smull	r1, r2, r2, r3
 189              	.LVL14:
 190 0068 DB17     		asrs	r3, r3, #31
 191 006a C3EBA20A 		rsb	r10, r3, r2, asr #2
 192              	.LVL15:
 193 006e 03E0     		b	.L8
 194              	.LVL16:
 195              	.L21:
 297:Src/oled_i2c.c ****     static uint8_t err_1 = 0x00, err_2 = 0x00;
 196              		.loc 1 297 0
 197 0070 4FF0000A 		mov	r10, #0
 296:Src/oled_i2c.c ****     uint32_t out = 0x00;
 198              		.loc 1 296 0
 199 0074 D046     		mov	r8, r10
 295:Src/oled_i2c.c ****     uint32_t pow = 0x00;
 200              		.loc 1 295 0
 201 0076 5746     		mov	r7, r10
 202              	.LVL17:
 203              	.L8:
 305:Src/oled_i2c.c ****     }
 306:Src/oled_i2c.c **** 
 307:Src/oled_i2c.c ****     if(adc_offset < pow)
 204              		.loc 1 307 0
ARM GAS  /var/folders/9t/hshg14bj4r3bdmp8s0pp3jdw0000gn/T//ccxmgz9n.s 			page 10


 205 0078 C845     		cmp	r8, r9
 206 007a 13D9     		bls	.L9
 308:Src/oled_i2c.c ****     {
 309:Src/oled_i2c.c ****         if(hi2c == &hi2c1)
 207              		.loc 1 309 0
 208 007c BB4B     		ldr	r3, .L23+8
 209 007e 9C42     		cmp	r4, r3
 210 0080 08D1     		bne	.L10
 310:Src/oled_i2c.c ****         {
 311:Src/oled_i2c.c ****             MX_GPIO1_TEST_Error(GPIO_PIN_SET);
 211              		.loc 1 311 0
 212 0082 0120     		movs	r0, #1
 213 0084 FFF7FEFF 		bl	MX_GPIO1_TEST_Error
 214              	.LVL18:
 312:Src/oled_i2c.c ****             beer_flag = 0x01;
 215              		.loc 1 312 0
 216 0088 0123     		movs	r3, #1
 217 008a B94A     		ldr	r2, .L23+12
 218 008c 1370     		strb	r3, [r2]
 313:Src/oled_i2c.c ****             err_1 = 0x01;
 219              		.loc 1 313 0
 220 008e B94A     		ldr	r2, .L23+16
 221 0090 1370     		strb	r3, [r2]
 222 0092 07E0     		b	.L9
 223              	.L10:
 314:Src/oled_i2c.c ****         }
 315:Src/oled_i2c.c ****         else
 316:Src/oled_i2c.c ****         {
 317:Src/oled_i2c.c ****             MX_GPIO2_TEST_Error(GPIO_PIN_SET);
 224              		.loc 1 317 0
 225 0094 0120     		movs	r0, #1
 226 0096 FFF7FEFF 		bl	MX_GPIO2_TEST_Error
 227              	.LVL19:
 318:Src/oled_i2c.c ****             beer_flag = 0x01;
 228              		.loc 1 318 0
 229 009a 0123     		movs	r3, #1
 230 009c B44A     		ldr	r2, .L23+12
 231 009e 1370     		strb	r3, [r2]
 319:Src/oled_i2c.c ****             err_2 = 0x01;
 232              		.loc 1 319 0
 233 00a0 B54A     		ldr	r2, .L23+20
 234 00a2 1370     		strb	r3, [r2]
 235              	.L9:
 320:Src/oled_i2c.c ****         }
 321:Src/oled_i2c.c ****     }
 322:Src/oled_i2c.c **** 
 323:Src/oled_i2c.c ****     if(beer_flag == 0x00)
 236              		.loc 1 323 0
 237 00a4 B24B     		ldr	r3, .L23+12
 238 00a6 1B78     		ldrb	r3, [r3]	@ zero_extendqisi2
 239 00a8 13F0FF0F 		tst	r3, #255
 240 00ac 0DD1     		bne	.L11
 324:Src/oled_i2c.c ****     {
 325:Src/oled_i2c.c ****         if(hi2c == &hi2c1)
 241              		.loc 1 325 0
 242 00ae AF4B     		ldr	r3, .L23+8
 243 00b0 9C42     		cmp	r4, r3
ARM GAS  /var/folders/9t/hshg14bj4r3bdmp8s0pp3jdw0000gn/T//ccxmgz9n.s 			page 11


 244 00b2 05D1     		bne	.L12
 326:Src/oled_i2c.c ****         {
 327:Src/oled_i2c.c ****             err_1 = 0x00;
 245              		.loc 1 327 0
 246 00b4 0020     		movs	r0, #0
 247 00b6 AF4B     		ldr	r3, .L23+16
 248 00b8 1870     		strb	r0, [r3]
 328:Src/oled_i2c.c ****             MX_GPIO1_TEST_Error(GPIO_PIN_RESET);
 249              		.loc 1 328 0
 250 00ba FFF7FEFF 		bl	MX_GPIO1_TEST_Error
 251              	.LVL20:
 252 00be 04E0     		b	.L11
 253              	.L12:
 329:Src/oled_i2c.c ****         }
 330:Src/oled_i2c.c ****         else
 331:Src/oled_i2c.c ****         {
 332:Src/oled_i2c.c ****             err_2 = 0x00;
 254              		.loc 1 332 0
 255 00c0 0020     		movs	r0, #0
 256 00c2 AD4B     		ldr	r3, .L23+20
 257 00c4 1870     		strb	r0, [r3]
 333:Src/oled_i2c.c ****             MX_GPIO2_TEST_Error(GPIO_PIN_RESET);
 258              		.loc 1 333 0
 259 00c6 FFF7FEFF 		bl	MX_GPIO2_TEST_Error
 260              	.LVL21:
 261              	.L11:
 334:Src/oled_i2c.c ****         }
 335:Src/oled_i2c.c ****     }
 336:Src/oled_i2c.c **** 
 337:Src/oled_i2c.c ****     //out
 338:Src/oled_i2c.c ****     memcpy(&array1[10][0],&number[out / 10][0],16);
 262              		.loc 1 338 0
 263 00ca DFF8C4E2 		ldr	lr, .L23+44
 264 00ce AEFB0A3C 		umull	r3, ip, lr, r10
 265 00d2 4FEADC0C 		lsr	ip, ip, #3
 266 00d6 A94E     		ldr	r6, .L23+24
 267 00d8 06EB0C13 		add	r3, r6, ip, lsl #4
 268 00dc A84D     		ldr	r5, .L23+28
 269 00de 05F1A00B 		add	fp, r5, #160
 270 00e2 1868     		ldr	r0, [r3]	@ unaligned
 271 00e4 5968     		ldr	r1, [r3, #4]	@ unaligned
 272 00e6 9A68     		ldr	r2, [r3, #8]	@ unaligned
 273 00e8 DB68     		ldr	r3, [r3, #12]	@ unaligned
 274 00ea ABE80F00 		stmia	fp!, {r0, r1, r2, r3}
 339:Src/oled_i2c.c ****     memcpy(&array1[11][0],&number[out %  10][0],16);
 275              		.loc 1 339 0
 276 00ee 0CEB8C0C 		add	ip, ip, ip, lsl #2
 277 00f2 4FEA4C03 		lsl	r3, ip, #1
 278 00f6 C3EB0A03 		rsb	r3, r3, r10
 279 00fa 06EB0313 		add	r3, r6, r3, lsl #4
 280 00fe 05F1B00C 		add	ip, r5, #176
 281 0102 1868     		ldr	r0, [r3]	@ unaligned
 282 0104 5968     		ldr	r1, [r3, #4]	@ unaligned
 283 0106 9A68     		ldr	r2, [r3, #8]	@ unaligned
 284 0108 DB68     		ldr	r3, [r3, #12]	@ unaligned
 285 010a ACE80F00 		stmia	ip!, {r0, r1, r2, r3}
 340:Src/oled_i2c.c ****     //vol
ARM GAS  /var/folders/9t/hshg14bj4r3bdmp8s0pp3jdw0000gn/T//ccxmgz9n.s 			page 12


 341:Src/oled_i2c.c ****     memcpy(&array1[23][0],&number[vol / 100][0],16);
 286              		.loc 1 341 0
 287 010e DFF884C2 		ldr	ip, .L23+48
 288 0112 ACFB073A 		umull	r3, r10, ip, r7
 289              	.LVL22:
 290 0116 4FEA5A1A 		lsr	r10, r10, #5
 291 011a 06EB0A13 		add	r3, r6, r10, lsl #4
 292 011e 05F5B87B 		add	fp, r5, #368
 293 0122 1868     		ldr	r0, [r3]	@ unaligned
 294 0124 5968     		ldr	r1, [r3, #4]	@ unaligned
 295 0126 9A68     		ldr	r2, [r3, #8]	@ unaligned
 296 0128 DB68     		ldr	r3, [r3, #12]	@ unaligned
 297 012a ABE80F00 		stmia	fp!, {r0, r1, r2, r3}
 342:Src/oled_i2c.c ****     memcpy(&array1[24][0],&number[(vol % 100) / 10][0],16);
 298              		.loc 1 342 0
 299 012e 6423     		movs	r3, #100
 300 0130 03FB1A77 		mls	r7, r3, r10, r7
 301              	.LVL23:
 302 0134 BFB2     		uxth	r7, r7
 303 0136 AEFB073A 		umull	r3, r10, lr, r7
 304 013a 4FEADA0A 		lsr	r10, r10, #3
 305 013e 06EB0A13 		add	r3, r6, r10, lsl #4
 306 0142 05F5C07B 		add	fp, r5, #384
 307 0146 1868     		ldr	r0, [r3]	@ unaligned
 308 0148 5968     		ldr	r1, [r3, #4]	@ unaligned
 309 014a 9A68     		ldr	r2, [r3, #8]	@ unaligned
 310 014c DB68     		ldr	r3, [r3, #12]	@ unaligned
 311 014e ABE80F00 		stmia	fp!, {r0, r1, r2, r3}
 343:Src/oled_i2c.c ****     memcpy(&array1[25][0],&number[(vol % 100) % 10][0],16);
 312              		.loc 1 343 0
 313 0152 0AEB8A0A 		add	r10, r10, r10, lsl #2
 314 0156 4FEA4A03 		lsl	r3, r10, #1
 315 015a FB1A     		subs	r3, r7, r3
 316 015c 9BB2     		uxth	r3, r3
 317 015e 06EB0313 		add	r3, r6, r3, lsl #4
 318 0162 05F5C877 		add	r7, r5, #400
 319 0166 1868     		ldr	r0, [r3]	@ unaligned
 320 0168 5968     		ldr	r1, [r3, #4]	@ unaligned
 321 016a 9A68     		ldr	r2, [r3, #8]	@ unaligned
 322 016c DB68     		ldr	r3, [r3, #12]	@ unaligned
 323 016e 0FC7     		stmia	r7!, {r0, r1, r2, r3}
 344:Src/oled_i2c.c ****     //pow
 345:Src/oled_i2c.c ****     memcpy(&array1[39][0],&number[pow / 1000][0],16);
 324              		.loc 1 345 0
 325 0170 844B     		ldr	r3, .L23+32
 326 0172 A3FB083A 		umull	r3, r10, r3, r8
 327 0176 4FEA9A1A 		lsr	r10, r10, #6
 328 017a 06EB0A13 		add	r3, r6, r10, lsl #4
 329 017e 05F51C77 		add	r7, r5, #624
 330 0182 1868     		ldr	r0, [r3]	@ unaligned
 331 0184 5968     		ldr	r1, [r3, #4]	@ unaligned
 332 0186 9A68     		ldr	r2, [r3, #8]	@ unaligned
 333 0188 DB68     		ldr	r3, [r3, #12]	@ unaligned
 334 018a 0FC7     		stmia	r7!, {r0, r1, r2, r3}
 346:Src/oled_i2c.c ****     memcpy(&array1[40][0],&number[(pow % 1000) / 100][0],16);
 335              		.loc 1 346 0
 336 018c 4FF47A7B 		mov	fp, #1000
ARM GAS  /var/folders/9t/hshg14bj4r3bdmp8s0pp3jdw0000gn/T//ccxmgz9n.s 			page 13


 337 0190 0BFB1A87 		mls	r7, fp, r10, r8
 338 0194 ACFB0738 		umull	r3, r8, ip, r7
 339              	.LVL24:
 340 0198 4FEA5818 		lsr	r8, r8, #5
 341 019c 06EB0813 		add	r3, r6, r8, lsl #4
 342 01a0 05F5207A 		add	r10, r5, #640
 343 01a4 1868     		ldr	r0, [r3]	@ unaligned
 344 01a6 5968     		ldr	r1, [r3, #4]	@ unaligned
 345 01a8 9A68     		ldr	r2, [r3, #8]	@ unaligned
 346 01aa DB68     		ldr	r3, [r3, #12]	@ unaligned
 347 01ac AAE80F00 		stmia	r10!, {r0, r1, r2, r3}
 347:Src/oled_i2c.c ****     memcpy(&array1[41][0],&number[((pow % 1000) % 100) / 10][0],16);
 348              		.loc 1 347 0
 349 01b0 6423     		movs	r3, #100
 350 01b2 03FB187A 		mls	r10, r3, r8, r7
 351 01b6 AEFB0A37 		umull	r3, r7, lr, r10
 352 01ba FF08     		lsrs	r7, r7, #3
 353 01bc 06EB0713 		add	r3, r6, r7, lsl #4
 354 01c0 05F52478 		add	r8, r5, #656
 355 01c4 1868     		ldr	r0, [r3]	@ unaligned
 356 01c6 5968     		ldr	r1, [r3, #4]	@ unaligned
 357 01c8 9A68     		ldr	r2, [r3, #8]	@ unaligned
 358 01ca DB68     		ldr	r3, [r3, #12]	@ unaligned
 359 01cc A8E80F00 		stmia	r8!, {r0, r1, r2, r3}
 348:Src/oled_i2c.c ****     memcpy(&array1[42][0],&number[((pow % 1000) % 100) % 10][0],16);
 360              		.loc 1 348 0
 361 01d0 07EB8707 		add	r7, r7, r7, lsl #2
 362 01d4 7B00     		lsls	r3, r7, #1
 363 01d6 C3EB0A03 		rsb	r3, r3, r10
 364 01da 06EB0313 		add	r3, r6, r3, lsl #4
 365 01de 05F52877 		add	r7, r5, #672
 366 01e2 1868     		ldr	r0, [r3]	@ unaligned
 367 01e4 5968     		ldr	r1, [r3, #4]	@ unaligned
 368 01e6 9A68     		ldr	r2, [r3, #8]	@ unaligned
 369 01e8 DB68     		ldr	r3, [r3, #12]	@ unaligned
 370 01ea 0FC7     		stmia	r7!, {r0, r1, r2, r3}
 349:Src/oled_i2c.c ****     //set
 350:Src/oled_i2c.c ****     memcpy(&array1[55][0],&number[adc_offset / 1000][0],16);
 371              		.loc 1 350 0
 372 01ec 654B     		ldr	r3, .L23+32
 373 01ee A3FB0938 		umull	r3, r8, r3, r9
 374 01f2 4FEA9818 		lsr	r8, r8, #6
 375 01f6 06EB0813 		add	r3, r6, r8, lsl #4
 376 01fa 05F55C77 		add	r7, r5, #880
 377 01fe 1868     		ldr	r0, [r3]	@ unaligned
 378 0200 5968     		ldr	r1, [r3, #4]	@ unaligned
 379 0202 9A68     		ldr	r2, [r3, #8]	@ unaligned
 380 0204 DB68     		ldr	r3, [r3, #12]	@ unaligned
 381 0206 0FC7     		stmia	r7!, {r0, r1, r2, r3}
 351:Src/oled_i2c.c ****     memcpy(&array1[56][0],&number[(adc_offset % 1000) / 100][0],16);
 382              		.loc 1 351 0
 383 0208 0BFB1897 		mls	r7, fp, r8, r9
 384 020c ACFB073C 		umull	r3, ip, ip, r7
 385 0210 4FEA5C18 		lsr	r8, ip, #5
 386 0214 06EB0813 		add	r3, r6, r8, lsl #4
 387 0218 05F5607C 		add	ip, r5, #896
 388 021c 1868     		ldr	r0, [r3]	@ unaligned
ARM GAS  /var/folders/9t/hshg14bj4r3bdmp8s0pp3jdw0000gn/T//ccxmgz9n.s 			page 14


 389 021e 5968     		ldr	r1, [r3, #4]	@ unaligned
 390 0220 9A68     		ldr	r2, [r3, #8]	@ unaligned
 391 0222 DB68     		ldr	r3, [r3, #12]	@ unaligned
 392 0224 ACE80F00 		stmia	ip!, {r0, r1, r2, r3}
 352:Src/oled_i2c.c ****     memcpy(&array1[57][0],&number[((adc_offset % 1000) % 100) / 10][0],16);
 393              		.loc 1 352 0
 394 0228 6423     		movs	r3, #100
 395 022a 03FB187C 		mls	ip, r3, r8, r7
 396 022e AEFB0C37 		umull	r3, r7, lr, ip
 397 0232 FF08     		lsrs	r7, r7, #3
 398 0234 06EB0713 		add	r3, r6, r7, lsl #4
 399 0238 05F5647E 		add	lr, r5, #912
 400 023c 1868     		ldr	r0, [r3]	@ unaligned
 401 023e 5968     		ldr	r1, [r3, #4]	@ unaligned
 402 0240 9A68     		ldr	r2, [r3, #8]	@ unaligned
 403 0242 DB68     		ldr	r3, [r3, #12]	@ unaligned
 404 0244 AEE80F00 		stmia	lr!, {r0, r1, r2, r3}
 353:Src/oled_i2c.c ****     memcpy(&array1[58][0],&number[((adc_offset % 1000) % 100) % 10][0],16);
 405              		.loc 1 353 0
 406 0248 07EB8707 		add	r7, r7, r7, lsl #2
 407 024c 7B00     		lsls	r3, r7, #1
 408 024e C3EB0C03 		rsb	r3, r3, ip
 409 0252 06EB0316 		add	r6, r6, r3, lsl #4
 410 0256 05F56875 		add	r5, r5, #928
 411 025a 3068     		ldr	r0, [r6]	@ unaligned
 412 025c 7168     		ldr	r1, [r6, #4]	@ unaligned
 413 025e B268     		ldr	r2, [r6, #8]	@ unaligned
 414 0260 F368     		ldr	r3, [r6, #12]	@ unaligned
 415 0262 0FC5     		stmia	r5!, {r0, r1, r2, r3}
 354:Src/oled_i2c.c **** 
 355:Src/oled_i2c.c **** 	for(m=0;m<8;m++)
 416              		.loc 1 355 0
 417 0264 0026     		movs	r6, #0
 418 0266 B7E0     		b	.L13
 419              	.LVL25:
 420              	.L20:
 356:Src/oled_i2c.c **** 	{ 
 357:Src/oled_i2c.c ****         data_b = 0xb0+m;
 421              		.loc 1 357 0
 422 0268 A6F15002 		sub	r2, r6, #80
 423 026c 06AB     		add	r3, sp, #24
 424 026e 03F8032D 		strb	r2, [r3, #-3]!
 358:Src/oled_i2c.c ****         HAL_I2C_Mem_Write(hi2c,0x78,0x00,I2C_MEMADD_SIZE_8BIT,&data_b,1,10);
 425              		.loc 1 358 0
 426 0272 0A27     		movs	r7, #10
 427 0274 0297     		str	r7, [sp, #8]
 428 0276 0125     		movs	r5, #1
 429 0278 0195     		str	r5, [sp, #4]
 430 027a 0093     		str	r3, [sp]
 431 027c 2B46     		mov	r3, r5
 432 027e 0022     		movs	r2, #0
 433 0280 7821     		movs	r1, #120
 434 0282 2046     		mov	r0, r4
 435 0284 FFF7FEFF 		bl	HAL_I2C_Mem_Write
 436              	.LVL26:
 359:Src/oled_i2c.c ****         HAL_I2C_Mem_Write(hi2c,0x78,0x00,I2C_MEMADD_SIZE_8BIT,&data1,1,10);		//low column start add
 437              		.loc 1 359 0
ARM GAS  /var/folders/9t/hshg14bj4r3bdmp8s0pp3jdw0000gn/T//ccxmgz9n.s 			page 15


 438 0288 0297     		str	r7, [sp, #8]
 439 028a 0195     		str	r5, [sp, #4]
 440 028c 0DF11703 		add	r3, sp, #23
 441 0290 0093     		str	r3, [sp]
 442 0292 2B46     		mov	r3, r5
 443 0294 0022     		movs	r2, #0
 444 0296 7821     		movs	r1, #120
 445 0298 2046     		mov	r0, r4
 446 029a FFF7FEFF 		bl	HAL_I2C_Mem_Write
 447              	.LVL27:
 360:Src/oled_i2c.c ****         HAL_I2C_Mem_Write(hi2c,0x78,0x00,I2C_MEMADD_SIZE_8BIT,&data2,1,10);		//high column start ad
 448              		.loc 1 360 0
 449 029e 0297     		str	r7, [sp, #8]
 450 02a0 0195     		str	r5, [sp, #4]
 451 02a2 0DF11603 		add	r3, sp, #22
 452 02a6 0093     		str	r3, [sp]
 453 02a8 2B46     		mov	r3, r5
 454 02aa 0022     		movs	r2, #0
 455 02ac 7821     		movs	r1, #120
 456 02ae 2046     		mov	r0, r4
 457 02b0 FFF7FEFF 		bl	HAL_I2C_Mem_Write
 458              	.LVL28:
 361:Src/oled_i2c.c **** 
 362:Src/oled_i2c.c ****         for(n=0;n<128;n++)
 459              		.loc 1 362 0
 460 02b4 0025     		movs	r5, #0
 461 02b6 89E0     		b	.L14
 462              	.LVL29:
 463              	.L19:
 363:Src/oled_i2c.c ****         {
 364:Src/oled_i2c.c ****             if (hi2c == &hi2c1)
 464              		.loc 1 364 0
 465 02b8 2C4B     		ldr	r3, .L23+8
 466 02ba 9C42     		cmp	r4, r3
 467 02bc 35D1     		bne	.L15
 365:Src/oled_i2c.c ****             {
 366:Src/oled_i2c.c ****                 if (err_1 == 0x01)
 468              		.loc 1 366 0
 469 02be 2D4B     		ldr	r3, .L23+16
 470 02c0 1B78     		ldrb	r3, [r3]	@ zero_extendqisi2
 471 02c2 012B     		cmp	r3, #1
 472 02c4 18D1     		bne	.L16
 367:Src/oled_i2c.c ****                 {
 368:Src/oled_i2c.c ****                     HAL_I2C_Mem_Write(&hi2c1,0x78,0x40,I2C_MEMADD_SIZE_8BIT,&array2[m / 2 * 16 + n 
 473              		.loc 1 368 0
 474 02c6 7208     		lsrs	r2, r6, #1
 475 02c8 EB08     		lsrs	r3, r5, #3
 476 02ca 03EB0211 		add	r1, r3, r2, lsl #4
 477 02ce 06F00102 		and	r2, r6, #1
 478 02d2 05F00703 		and	r3, r5, #7
 479 02d6 03EBC202 		add	r2, r3, r2, lsl #3
 480 02da 0A23     		movs	r3, #10
 481 02dc 0293     		str	r3, [sp, #8]
 482 02de 0123     		movs	r3, #1
 483 02e0 0193     		str	r3, [sp, #4]
 484 02e2 02EB0112 		add	r2, r2, r1, lsl #4
 485 02e6 2849     		ldr	r1, .L23+36
ARM GAS  /var/folders/9t/hshg14bj4r3bdmp8s0pp3jdw0000gn/T//ccxmgz9n.s 			page 16


 486 02e8 0A44     		add	r2, r2, r1
 487 02ea 0092     		str	r2, [sp]
 488 02ec 4022     		movs	r2, #64
 489 02ee 7821     		movs	r1, #120
 490 02f0 1E48     		ldr	r0, .L23+8
 491 02f2 FFF7FEFF 		bl	HAL_I2C_Mem_Write
 492              	.LVL30:
 493 02f6 67E0     		b	.L17
 494              	.L16:
 369:Src/oled_i2c.c ****                 }
 370:Src/oled_i2c.c ****                 else
 371:Src/oled_i2c.c ****                 {
 372:Src/oled_i2c.c ****                     HAL_I2C_Mem_Write(&hi2c1,0x78,0x40,I2C_MEMADD_SIZE_8BIT,&array1[m / 2 * 16 + n 
 495              		.loc 1 372 0
 496 02f8 7208     		lsrs	r2, r6, #1
 497 02fa EB08     		lsrs	r3, r5, #3
 498 02fc 03EB0211 		add	r1, r3, r2, lsl #4
 499 0300 06F00102 		and	r2, r6, #1
 500 0304 05F00703 		and	r3, r5, #7
 501 0308 03EBC202 		add	r2, r3, r2, lsl #3
 502 030c 0A23     		movs	r3, #10
 503 030e 0293     		str	r3, [sp, #8]
 504 0310 0123     		movs	r3, #1
 505 0312 0193     		str	r3, [sp, #4]
 506 0314 02EB0112 		add	r2, r2, r1, lsl #4
 507 0318 1949     		ldr	r1, .L23+28
 508 031a 0A44     		add	r2, r2, r1
 509 031c 0092     		str	r2, [sp]
 510 031e 4022     		movs	r2, #64
 511 0320 7821     		movs	r1, #120
 512 0322 1248     		ldr	r0, .L23+8
 513 0324 FFF7FEFF 		bl	HAL_I2C_Mem_Write
 514              	.LVL31:
 515 0328 4EE0     		b	.L17
 516              	.L15:
 373:Src/oled_i2c.c ****                 }   
 374:Src/oled_i2c.c ****             }
 375:Src/oled_i2c.c ****             else
 376:Src/oled_i2c.c ****             {
 377:Src/oled_i2c.c ****                 if (err_2 == 0x01)
 517              		.loc 1 377 0
 518 032a 134B     		ldr	r3, .L23+20
 519 032c 1B78     		ldrb	r3, [r3]	@ zero_extendqisi2
 520 032e 012B     		cmp	r3, #1
 521 0330 32D1     		bne	.L18
 378:Src/oled_i2c.c ****                 {
 379:Src/oled_i2c.c ****                     HAL_I2C_Mem_Write(&hi2c2,0x78,0x40,I2C_MEMADD_SIZE_8BIT,&array2[m / 2 * 16 + n 
 522              		.loc 1 379 0
 523 0332 7208     		lsrs	r2, r6, #1
 524 0334 EB08     		lsrs	r3, r5, #3
 525 0336 03EB0211 		add	r1, r3, r2, lsl #4
 526 033a 06F00102 		and	r2, r6, #1
 527 033e 05F00703 		and	r3, r5, #7
 528 0342 03EBC202 		add	r2, r3, r2, lsl #3
 529 0346 0A23     		movs	r3, #10
 530 0348 0293     		str	r3, [sp, #8]
 531 034a 0123     		movs	r3, #1
ARM GAS  /var/folders/9t/hshg14bj4r3bdmp8s0pp3jdw0000gn/T//ccxmgz9n.s 			page 17


 532 034c 0193     		str	r3, [sp, #4]
 533 034e 02EB0112 		add	r2, r2, r1, lsl #4
 534 0352 0D49     		ldr	r1, .L23+36
 535 0354 0A44     		add	r2, r2, r1
 536 0356 0092     		str	r2, [sp]
 537 0358 4022     		movs	r2, #64
 538 035a 7821     		movs	r1, #120
 539 035c 0B48     		ldr	r0, .L23+40
 540 035e FFF7FEFF 		bl	HAL_I2C_Mem_Write
 541              	.LVL32:
 542 0362 31E0     		b	.L17
 543              	.L24:
 544              		.align	2
 545              	.L23:
 546 0364 87611886 		.word	-2045222521
 547 0368 67666666 		.word	1717986919
 548 036c 00000000 		.word	hi2c1
 549 0370 00000000 		.word	beer_flag
 550 0374 00000000 		.word	.LANCHOR1
 551 0378 00000000 		.word	.LANCHOR2
 552 037c 00000000 		.word	.LANCHOR3
 553 0380 00000000 		.word	.LANCHOR4
 554 0384 D34D6210 		.word	274877907
 555 0388 00000000 		.word	.LANCHOR5
 556 038c 00000000 		.word	hi2c2
 557 0390 CDCCCCCC 		.word	-858993459
 558 0394 1F85EB51 		.word	1374389535
 559              	.L18:
 380:Src/oled_i2c.c ****                 }
 381:Src/oled_i2c.c ****                 else
 382:Src/oled_i2c.c ****                 {
 383:Src/oled_i2c.c ****                     HAL_I2C_Mem_Write(&hi2c2,0x78,0x40,I2C_MEMADD_SIZE_8BIT,&array1[m / 2 * 16 + n 
 560              		.loc 1 383 0
 561 0398 7208     		lsrs	r2, r6, #1
 562 039a EB08     		lsrs	r3, r5, #3
 563 039c 03EB0211 		add	r1, r3, r2, lsl #4
 564 03a0 06F00102 		and	r2, r6, #1
 565 03a4 05F00703 		and	r3, r5, #7
 566 03a8 03EBC202 		add	r2, r3, r2, lsl #3
 567 03ac 0A23     		movs	r3, #10
 568 03ae 0293     		str	r3, [sp, #8]
 569 03b0 0123     		movs	r3, #1
 570 03b2 0193     		str	r3, [sp, #4]
 571 03b4 02EB0112 		add	r2, r2, r1, lsl #4
 572 03b8 0A49     		ldr	r1, .L25
 573 03ba 0A44     		add	r2, r2, r1
 574 03bc 0092     		str	r2, [sp]
 575 03be 4022     		movs	r2, #64
 576 03c0 7821     		movs	r1, #120
 577 03c2 0948     		ldr	r0, .L25+4
 578 03c4 FFF7FEFF 		bl	HAL_I2C_Mem_Write
 579              	.LVL33:
 580              	.L17:
 362:Src/oled_i2c.c ****         {
 581              		.loc 1 362 0 discriminator 2
 582 03c8 0135     		adds	r5, r5, #1
 583              	.LVL34:
ARM GAS  /var/folders/9t/hshg14bj4r3bdmp8s0pp3jdw0000gn/T//ccxmgz9n.s 			page 18


 584 03ca EDB2     		uxtb	r5, r5
 585              	.LVL35:
 586              	.L14:
 362:Src/oled_i2c.c ****         {
 587              		.loc 1 362 0 is_stmt 0 discriminator 1
 588 03cc 15F0800F 		tst	r5, #128
 589 03d0 3FF472AF 		beq	.L19
 355:Src/oled_i2c.c **** 	{ 
 590              		.loc 1 355 0 is_stmt 1 discriminator 2
 591 03d4 0136     		adds	r6, r6, #1
 592              	.LVL36:
 593 03d6 F6B2     		uxtb	r6, r6
 594              	.LVL37:
 595              	.L13:
 355:Src/oled_i2c.c **** 	{ 
 596              		.loc 1 355 0 is_stmt 0 discriminator 1
 597 03d8 072E     		cmp	r6, #7
 598 03da 7FF645AF 		bls	.L20
 384:Src/oled_i2c.c ****                 }
 385:Src/oled_i2c.c ****             } 
 386:Src/oled_i2c.c ****         }
 387:Src/oled_i2c.c **** 	}  
 388:Src/oled_i2c.c **** }
 599              		.loc 1 388 0 is_stmt 1
 600 03de 07B0     		add	sp, sp, #28
 601              	.LCFI5:
 602              		.cfi_def_cfa_offset 36
 603              		@ sp needed
 604 03e0 BDE8F08F 		pop	{r4, r5, r6, r7, r8, r9, r10, fp, pc}
 605              	.LVL38:
 606              	.L26:
 607              		.align	2
 608              	.L25:
 609 03e4 00000000 		.word	.LANCHOR4
 610 03e8 00000000 		.word	hi2c2
 611              		.cfi_endproc
 612              	.LFE66:
 614              		.section	.rodata
 615              		.align	2
 616              		.set	.LANCHOR0,. + 0
 617              	.LC0:
 618 0000 AE       		.byte	-82
 619 0001 20       		.byte	32
 620 0002 10       		.byte	16
 621 0003 B0       		.byte	-80
 622 0004 C8       		.byte	-56
 623 0005 02       		.byte	2
 624 0006 10       		.byte	16
 625 0007 40       		.byte	64
 626 0008 81       		.byte	-127
 627 0009 FF       		.byte	-1
 628 000a A1       		.byte	-95
 629 000b A6       		.byte	-90
 630 000c A8       		.byte	-88
 631 000d 3F       		.byte	63
 632 000e A4       		.byte	-92
 633 000f D3       		.byte	-45
ARM GAS  /var/folders/9t/hshg14bj4r3bdmp8s0pp3jdw0000gn/T//ccxmgz9n.s 			page 19


 634 0010 00       		.byte	0
 635 0011 D5       		.byte	-43
 636 0012 F0       		.byte	-16
 637 0013 D9       		.byte	-39
 638 0014 22       		.byte	34
 639 0015 DA       		.byte	-38
 640 0016 12       		.byte	18
 641 0017 DB       		.byte	-37
 642 0018 20       		.byte	32
 643 0019 8D       		.byte	-115
 644 001a 14       		.byte	20
 645 001b AF       		.byte	-81
 646              		.section	.rodata.number,"a",%progbits
 647              		.align	2
 648              		.set	.LANCHOR3,. + 0
 651              	number:
 652 0000 00       		.byte	0
 653 0001 E0       		.byte	-32
 654 0002 10       		.byte	16
 655 0003 08       		.byte	8
 656 0004 08       		.byte	8
 657 0005 10       		.byte	16
 658 0006 E0       		.byte	-32
 659 0007 00       		.byte	0
 660 0008 00       		.byte	0
 661 0009 0F       		.byte	15
 662 000a 10       		.byte	16
 663 000b 20       		.byte	32
 664 000c 20       		.byte	32
 665 000d 10       		.byte	16
 666 000e 0F       		.byte	15
 667 000f 00       		.byte	0
 668 0010 00       		.byte	0
 669 0011 00       		.byte	0
 670 0012 10       		.byte	16
 671 0013 10       		.byte	16
 672 0014 F8       		.byte	-8
 673 0015 00       		.byte	0
 674 0016 00       		.byte	0
 675 0017 00       		.byte	0
 676 0018 00       		.byte	0
 677 0019 00       		.byte	0
 678 001a 20       		.byte	32
 679 001b 20       		.byte	32
 680 001c 3F       		.byte	63
 681 001d 20       		.byte	32
 682 001e 20       		.byte	32
 683 001f 00       		.byte	0
 684 0020 00       		.byte	0
 685 0021 70       		.byte	112
 686 0022 08       		.byte	8
 687 0023 08       		.byte	8
 688 0024 08       		.byte	8
 689 0025 08       		.byte	8
 690 0026 F0       		.byte	-16
 691 0027 00       		.byte	0
 692 0028 00       		.byte	0
ARM GAS  /var/folders/9t/hshg14bj4r3bdmp8s0pp3jdw0000gn/T//ccxmgz9n.s 			page 20


 693 0029 30       		.byte	48
 694 002a 28       		.byte	40
 695 002b 24       		.byte	36
 696 002c 22       		.byte	34
 697 002d 21       		.byte	33
 698 002e 30       		.byte	48
 699 002f 00       		.byte	0
 700 0030 00       		.byte	0
 701 0031 30       		.byte	48
 702 0032 08       		.byte	8
 703 0033 08       		.byte	8
 704 0034 08       		.byte	8
 705 0035 88       		.byte	-120
 706 0036 70       		.byte	112
 707 0037 00       		.byte	0
 708 0038 00       		.byte	0
 709 0039 18       		.byte	24
 710 003a 20       		.byte	32
 711 003b 21       		.byte	33
 712 003c 21       		.byte	33
 713 003d 22       		.byte	34
 714 003e 1C       		.byte	28
 715 003f 00       		.byte	0
 716 0040 00       		.byte	0
 717 0041 00       		.byte	0
 718 0042 80       		.byte	-128
 719 0043 40       		.byte	64
 720 0044 30       		.byte	48
 721 0045 F8       		.byte	-8
 722 0046 00       		.byte	0
 723 0047 00       		.byte	0
 724 0048 00       		.byte	0
 725 0049 06       		.byte	6
 726 004a 05       		.byte	5
 727 004b 24       		.byte	36
 728 004c 24       		.byte	36
 729 004d 3F       		.byte	63
 730 004e 24       		.byte	36
 731 004f 24       		.byte	36
 732 0050 00       		.byte	0
 733 0051 F8       		.byte	-8
 734 0052 88       		.byte	-120
 735 0053 88       		.byte	-120
 736 0054 88       		.byte	-120
 737 0055 08       		.byte	8
 738 0056 08       		.byte	8
 739 0057 00       		.byte	0
 740 0058 00       		.byte	0
 741 0059 19       		.byte	25
 742 005a 20       		.byte	32
 743 005b 20       		.byte	32
 744 005c 20       		.byte	32
 745 005d 11       		.byte	17
 746 005e 0E       		.byte	14
 747 005f 00       		.byte	0
 748 0060 00       		.byte	0
 749 0061 E0       		.byte	-32
ARM GAS  /var/folders/9t/hshg14bj4r3bdmp8s0pp3jdw0000gn/T//ccxmgz9n.s 			page 21


 750 0062 10       		.byte	16
 751 0063 88       		.byte	-120
 752 0064 88       		.byte	-120
 753 0065 90       		.byte	-112
 754 0066 00       		.byte	0
 755 0067 00       		.byte	0
 756 0068 00       		.byte	0
 757 0069 0F       		.byte	15
 758 006a 11       		.byte	17
 759 006b 20       		.byte	32
 760 006c 20       		.byte	32
 761 006d 20       		.byte	32
 762 006e 1F       		.byte	31
 763 006f 00       		.byte	0
 764 0070 00       		.byte	0
 765 0071 18       		.byte	24
 766 0072 08       		.byte	8
 767 0073 08       		.byte	8
 768 0074 88       		.byte	-120
 769 0075 68       		.byte	104
 770 0076 18       		.byte	24
 771 0077 00       		.byte	0
 772 0078 00       		.byte	0
 773 0079 00       		.byte	0
 774 007a 00       		.byte	0
 775 007b 3E       		.byte	62
 776 007c 01       		.byte	1
 777 007d 00       		.byte	0
 778 007e 00       		.byte	0
 779 007f 00       		.byte	0
 780 0080 00       		.byte	0
 781 0081 70       		.byte	112
 782 0082 88       		.byte	-120
 783 0083 08       		.byte	8
 784 0084 08       		.byte	8
 785 0085 88       		.byte	-120
 786 0086 70       		.byte	112
 787 0087 00       		.byte	0
 788 0088 00       		.byte	0
 789 0089 1C       		.byte	28
 790 008a 22       		.byte	34
 791 008b 21       		.byte	33
 792 008c 21       		.byte	33
 793 008d 22       		.byte	34
 794 008e 1C       		.byte	28
 795 008f 00       		.byte	0
 796 0090 00       		.byte	0
 797 0091 F0       		.byte	-16
 798 0092 08       		.byte	8
 799 0093 08       		.byte	8
 800 0094 08       		.byte	8
 801 0095 10       		.byte	16
 802 0096 E0       		.byte	-32
 803 0097 00       		.byte	0
 804 0098 00       		.byte	0
 805 0099 01       		.byte	1
 806 009a 12       		.byte	18
ARM GAS  /var/folders/9t/hshg14bj4r3bdmp8s0pp3jdw0000gn/T//ccxmgz9n.s 			page 22


 807 009b 22       		.byte	34
 808 009c 22       		.byte	34
 809 009d 11       		.byte	17
 810 009e 0F       		.byte	15
 811 009f 00       		.byte	0
 812              		.section	.bss.err_2.6480,"aw",%nobits
 813              		.set	.LANCHOR2,. + 0
 816              	err_2.6480:
 817 0000 00       		.space	1
 818              		.section	.bss.err_1.6479,"aw",%nobits
 819              		.set	.LANCHOR1,. + 0
 822              	err_1.6479:
 823 0000 00       		.space	1
 824              		.section	.data.array1,"aw",%progbits
 825              		.align	2
 826              		.set	.LANCHOR4,. + 0
 829              	array1:
 830 0000 00       		.byte	0
 831 0001 00       		.byte	0
 832 0002 00       		.byte	0
 833 0003 00       		.byte	0
 834 0004 00       		.byte	0
 835 0005 00       		.byte	0
 836 0006 00       		.byte	0
 837 0007 00       		.byte	0
 838 0008 00       		.byte	0
 839 0009 00       		.byte	0
 840 000a 00       		.byte	0
 841 000b 00       		.byte	0
 842 000c 00       		.byte	0
 843 000d 00       		.byte	0
 844 000e 00       		.byte	0
 845 000f 00       		.byte	0
 846 0010 E0       		.byte	-32
 847 0011 10       		.byte	16
 848 0012 08       		.byte	8
 849 0013 08       		.byte	8
 850 0014 08       		.byte	8
 851 0015 10       		.byte	16
 852 0016 E0       		.byte	-32
 853 0017 00       		.byte	0
 854 0018 0F       		.byte	15
 855 0019 10       		.byte	16
 856 001a 20       		.byte	32
 857 001b 20       		.byte	32
 858 001c 20       		.byte	32
 859 001d 10       		.byte	16
 860 001e 0F       		.byte	15
 861 001f 00       		.byte	0
 862 0020 08       		.byte	8
 863 0021 F8       		.byte	-8
 864 0022 08       		.byte	8
 865 0023 00       		.byte	0
 866 0024 00       		.byte	0
 867 0025 08       		.byte	8
 868 0026 F8       		.byte	-8
 869 0027 08       		.byte	8
ARM GAS  /var/folders/9t/hshg14bj4r3bdmp8s0pp3jdw0000gn/T//ccxmgz9n.s 			page 23


 870 0028 00       		.byte	0
 871 0029 1F       		.byte	31
 872 002a 20       		.byte	32
 873 002b 20       		.byte	32
 874 002c 20       		.byte	32
 875 002d 20       		.byte	32
 876 002e 1F       		.byte	31
 877 002f 00       		.byte	0
 878 0030 18       		.byte	24
 879 0031 08       		.byte	8
 880 0032 08       		.byte	8
 881 0033 F8       		.byte	-8
 882 0034 08       		.byte	8
 883 0035 08       		.byte	8
 884 0036 18       		.byte	24
 885 0037 00       		.byte	0
 886 0038 00       		.byte	0
 887 0039 00       		.byte	0
 888 003a 20       		.byte	32
 889 003b 3F       		.byte	63
 890 003c 20       		.byte	32
 891 003d 00       		.byte	0
 892 003e 00       		.byte	0
 893 003f 00       		.byte	0
 894 0040 00       		.byte	0
 895 0041 00       		.byte	0
 896 0042 00       		.byte	0
 897 0043 00       		.byte	0
 898 0044 00       		.byte	0
 899 0045 00       		.byte	0
 900 0046 00       		.byte	0
 901 0047 00       		.byte	0
 902 0048 00       		.byte	0
 903 0049 00       		.byte	0
 904 004a 00       		.byte	0
 905 004b 00       		.byte	0
 906 004c 00       		.byte	0
 907 004d 00       		.byte	0
 908 004e 00       		.byte	0
 909 004f 00       		.byte	0
 910 0050 00       		.byte	0
 911 0051 00       		.byte	0
 912 0052 00       		.byte	0
 913 0053 C0       		.byte	-64
 914 0054 C0       		.byte	-64
 915 0055 00       		.byte	0
 916 0056 00       		.byte	0
 917 0057 00       		.byte	0
 918 0058 00       		.byte	0
 919 0059 00       		.byte	0
 920 005a 00       		.byte	0
 921 005b 30       		.byte	48
 922 005c 30       		.byte	48
 923 005d 00       		.byte	0
 924 005e 00       		.byte	0
 925 005f 00       		.byte	0
 926 0060 00       		.byte	0
ARM GAS  /var/folders/9t/hshg14bj4r3bdmp8s0pp3jdw0000gn/T//ccxmgz9n.s 			page 24


 927 0061 00       		.byte	0
 928 0062 00       		.byte	0
 929 0063 00       		.byte	0
 930 0064 00       		.byte	0
 931 0065 00       		.byte	0
 932 0066 00       		.byte	0
 933 0067 00       		.byte	0
 934 0068 00       		.byte	0
 935 0069 00       		.byte	0
 936 006a 00       		.byte	0
 937 006b 00       		.byte	0
 938 006c 00       		.byte	0
 939 006d 00       		.byte	0
 940 006e 00       		.byte	0
 941 006f 00       		.byte	0
 942 0070 00       		.byte	0
 943 0071 00       		.byte	0
 944 0072 C0       		.byte	-64
 945 0073 38       		.byte	56
 946 0074 E0       		.byte	-32
 947 0075 00       		.byte	0
 948 0076 00       		.byte	0
 949 0077 00       		.byte	0
 950 0078 20       		.byte	32
 951 0079 3C       		.byte	60
 952 007a 23       		.byte	35
 953 007b 02       		.byte	2
 954 007c 02       		.byte	2
 955 007d 27       		.byte	39
 956 007e 38       		.byte	56
 957 007f 20       		.byte	32
 958 0080 C0       		.byte	-64
 959 0081 30       		.byte	48
 960 0082 08       		.byte	8
 961 0083 08       		.byte	8
 962 0084 08       		.byte	8
 963 0085 08       		.byte	8
 964 0086 38       		.byte	56
 965 0087 00       		.byte	0
 966 0088 07       		.byte	7
 967 0089 18       		.byte	24
 968 008a 20       		.byte	32
 969 008b 20       		.byte	32
 970 008c 20       		.byte	32
 971 008d 10       		.byte	16
 972 008e 08       		.byte	8
 973 008f 00       		.byte	0
 974 0090 00       		.byte	0
 975 0091 00       		.byte	0
 976 0092 00       		.byte	0
 977 0093 00       		.byte	0
 978 0094 00       		.byte	0
 979 0095 00       		.byte	0
 980 0096 00       		.byte	0
 981 0097 00       		.byte	0
 982 0098 00       		.byte	0
 983 0099 00       		.byte	0
ARM GAS  /var/folders/9t/hshg14bj4r3bdmp8s0pp3jdw0000gn/T//ccxmgz9n.s 			page 25


 984 009a 00       		.byte	0
 985 009b 00       		.byte	0
 986 009c 00       		.byte	0
 987 009d 00       		.byte	0
 988 009e 00       		.byte	0
 989 009f 00       		.byte	0
 990 00a0 00       		.byte	0
 991 00a1 E0       		.byte	-32
 992 00a2 10       		.byte	16
 993 00a3 08       		.byte	8
 994 00a4 08       		.byte	8
 995 00a5 10       		.byte	16
 996 00a6 E0       		.byte	-32
 997 00a7 00       		.byte	0
 998 00a8 00       		.byte	0
 999 00a9 0F       		.byte	15
 1000 00aa 10       		.byte	16
 1001 00ab 20       		.byte	32
 1002 00ac 20       		.byte	32
 1003 00ad 10       		.byte	16
 1004 00ae 0F       		.byte	15
 1005 00af 00       		.byte	0
 1006 00b0 00       		.byte	0
 1007 00b1 E0       		.byte	-32
 1008 00b2 10       		.byte	16
 1009 00b3 08       		.byte	8
 1010 00b4 08       		.byte	8
 1011 00b5 10       		.byte	16
 1012 00b6 E0       		.byte	-32
 1013 00b7 00       		.byte	0
 1014 00b8 00       		.byte	0
 1015 00b9 0F       		.byte	15
 1016 00ba 10       		.byte	16
 1017 00bb 20       		.byte	32
 1018 00bc 20       		.byte	32
 1019 00bd 10       		.byte	16
 1020 00be 0F       		.byte	15
 1021 00bf 00       		.byte	0
 1022 00c0 08       		.byte	8
 1023 00c1 F8       		.byte	-8
 1024 00c2 08       		.byte	8
 1025 00c3 00       		.byte	0
 1026 00c4 00       		.byte	0
 1027 00c5 08       		.byte	8
 1028 00c6 F8       		.byte	-8
 1029 00c7 08       		.byte	8
 1030 00c8 20       		.byte	32
 1031 00c9 3F       		.byte	63
 1032 00ca 21       		.byte	33
 1033 00cb 01       		.byte	1
 1034 00cc 01       		.byte	1
 1035 00cd 21       		.byte	33
 1036 00ce 3F       		.byte	63
 1037 00cf 20       		.byte	32
 1038 00d0 00       		.byte	0
 1039 00d1 80       		.byte	-128
 1040 00d2 80       		.byte	-128
ARM GAS  /var/folders/9t/hshg14bj4r3bdmp8s0pp3jdw0000gn/T//ccxmgz9n.s 			page 26


 1041 00d3 80       		.byte	-128
 1042 00d4 80       		.byte	-128
 1043 00d5 80       		.byte	-128
 1044 00d6 80       		.byte	-128
 1045 00d7 00       		.byte	0
 1046 00d8 00       		.byte	0
 1047 00d9 21       		.byte	33
 1048 00da 30       		.byte	48
 1049 00db 2C       		.byte	44
 1050 00dc 22       		.byte	34
 1051 00dd 21       		.byte	33
 1052 00de 30       		.byte	48
 1053 00df 00       		.byte	0
 1054 00e0 00       		.byte	0
 1055 00e1 00       		.byte	0
 1056 00e2 00       		.byte	0
 1057 00e3 00       		.byte	0
 1058 00e4 00       		.byte	0
 1059 00e5 00       		.byte	0
 1060 00e6 00       		.byte	0
 1061 00e7 00       		.byte	0
 1062 00e8 00       		.byte	0
 1063 00e9 00       		.byte	0
 1064 00ea 00       		.byte	0
 1065 00eb 00       		.byte	0
 1066 00ec 00       		.byte	0
 1067 00ed 00       		.byte	0
 1068 00ee 00       		.byte	0
 1069 00ef 00       		.byte	0
 1070 00f0 00       		.byte	0
 1071 00f1 00       		.byte	0
 1072 00f2 00       		.byte	0
 1073 00f3 00       		.byte	0
 1074 00f4 00       		.byte	0
 1075 00f5 00       		.byte	0
 1076 00f6 00       		.byte	0
 1077 00f7 00       		.byte	0
 1078 00f8 00       		.byte	0
 1079 00f9 00       		.byte	0
 1080 00fa 00       		.byte	0
 1081 00fb 00       		.byte	0
 1082 00fc 00       		.byte	0
 1083 00fd 00       		.byte	0
 1084 00fe 00       		.byte	0
 1085 00ff 00       		.byte	0
 1086 0100 00       		.byte	0
 1087 0101 00       		.byte	0
 1088 0102 00       		.byte	0
 1089 0103 00       		.byte	0
 1090 0104 00       		.byte	0
 1091 0105 00       		.byte	0
 1092 0106 00       		.byte	0
 1093 0107 00       		.byte	0
 1094 0108 00       		.byte	0
 1095 0109 00       		.byte	0
 1096 010a 00       		.byte	0
 1097 010b 00       		.byte	0
ARM GAS  /var/folders/9t/hshg14bj4r3bdmp8s0pp3jdw0000gn/T//ccxmgz9n.s 			page 27


 1098 010c 00       		.byte	0
 1099 010d 00       		.byte	0
 1100 010e 00       		.byte	0
 1101 010f 00       		.byte	0
 1102 0110 08       		.byte	8
 1103 0111 78       		.byte	120
 1104 0112 88       		.byte	-120
 1105 0113 00       		.byte	0
 1106 0114 00       		.byte	0
 1107 0115 C8       		.byte	-56
 1108 0116 38       		.byte	56
 1109 0117 08       		.byte	8
 1110 0118 00       		.byte	0
 1111 0119 00       		.byte	0
 1112 011a 07       		.byte	7
 1113 011b 38       		.byte	56
 1114 011c 0E       		.byte	14
 1115 011d 01       		.byte	1
 1116 011e 00       		.byte	0
 1117 011f 00       		.byte	0
 1118 0120 E0       		.byte	-32
 1119 0121 10       		.byte	16
 1120 0122 08       		.byte	8
 1121 0123 08       		.byte	8
 1122 0124 08       		.byte	8
 1123 0125 10       		.byte	16
 1124 0126 E0       		.byte	-32
 1125 0127 00       		.byte	0
 1126 0128 0F       		.byte	15
 1127 0129 10       		.byte	16
 1128 012a 20       		.byte	32
 1129 012b 20       		.byte	32
 1130 012c 20       		.byte	32
 1131 012d 10       		.byte	16
 1132 012e 0F       		.byte	15
 1133 012f 00       		.byte	0
 1134 0130 08       		.byte	8
 1135 0131 F8       		.byte	-8
 1136 0132 08       		.byte	8
 1137 0133 00       		.byte	0
 1138 0134 00       		.byte	0
 1139 0135 00       		.byte	0
 1140 0136 00       		.byte	0
 1141 0137 00       		.byte	0
 1142 0138 20       		.byte	32
 1143 0139 3F       		.byte	63
 1144 013a 20       		.byte	32
 1145 013b 20       		.byte	32
 1146 013c 20       		.byte	32
 1147 013d 20       		.byte	32
 1148 013e 30       		.byte	48
 1149 013f 00       		.byte	0
 1150 0140 00       		.byte	0
 1151 0141 00       		.byte	0
 1152 0142 00       		.byte	0
 1153 0143 00       		.byte	0
 1154 0144 00       		.byte	0
ARM GAS  /var/folders/9t/hshg14bj4r3bdmp8s0pp3jdw0000gn/T//ccxmgz9n.s 			page 28


 1155 0145 00       		.byte	0
 1156 0146 00       		.byte	0
 1157 0147 00       		.byte	0
 1158 0148 00       		.byte	0
 1159 0149 00       		.byte	0
 1160 014a 00       		.byte	0
 1161 014b 00       		.byte	0
 1162 014c 00       		.byte	0
 1163 014d 00       		.byte	0
 1164 014e 00       		.byte	0
 1165 014f 00       		.byte	0
 1166 0150 00       		.byte	0
 1167 0151 00       		.byte	0
 1168 0152 00       		.byte	0
 1169 0153 C0       		.byte	-64
 1170 0154 C0       		.byte	-64
 1171 0155 00       		.byte	0
 1172 0156 00       		.byte	0
 1173 0157 00       		.byte	0
 1174 0158 00       		.byte	0
 1175 0159 00       		.byte	0
 1176 015a 00       		.byte	0
 1177 015b 30       		.byte	48
 1178 015c 30       		.byte	48
 1179 015d 00       		.byte	0
 1180 015e 00       		.byte	0
 1181 015f 00       		.byte	0
 1182 0160 00       		.byte	0
 1183 0161 00       		.byte	0
 1184 0162 00       		.byte	0
 1185 0163 00       		.byte	0
 1186 0164 00       		.byte	0
 1187 0165 00       		.byte	0
 1188 0166 00       		.byte	0
 1189 0167 00       		.byte	0
 1190 0168 00       		.byte	0
 1191 0169 00       		.byte	0
 1192 016a 00       		.byte	0
 1193 016b 00       		.byte	0
 1194 016c 00       		.byte	0
 1195 016d 00       		.byte	0
 1196 016e 00       		.byte	0
 1197 016f 00       		.byte	0
 1198 0170 00       		.byte	0
 1199 0171 E0       		.byte	-32
 1200 0172 10       		.byte	16
 1201 0173 08       		.byte	8
 1202 0174 08       		.byte	8
 1203 0175 10       		.byte	16
 1204 0176 E0       		.byte	-32
 1205 0177 00       		.byte	0
 1206 0178 00       		.byte	0
 1207 0179 0F       		.byte	15
 1208 017a 10       		.byte	16
 1209 017b 20       		.byte	32
 1210 017c 20       		.byte	32
 1211 017d 10       		.byte	16
ARM GAS  /var/folders/9t/hshg14bj4r3bdmp8s0pp3jdw0000gn/T//ccxmgz9n.s 			page 29


 1212 017e 0F       		.byte	15
 1213 017f 00       		.byte	0
 1214 0180 00       		.byte	0
 1215 0181 E0       		.byte	-32
 1216 0182 10       		.byte	16
 1217 0183 08       		.byte	8
 1218 0184 08       		.byte	8
 1219 0185 10       		.byte	16
 1220 0186 E0       		.byte	-32
 1221 0187 00       		.byte	0
 1222 0188 00       		.byte	0
 1223 0189 0F       		.byte	15
 1224 018a 10       		.byte	16
 1225 018b 20       		.byte	32
 1226 018c 20       		.byte	32
 1227 018d 10       		.byte	16
 1228 018e 0F       		.byte	15
 1229 018f 00       		.byte	0
 1230 0190 00       		.byte	0
 1231 0191 E0       		.byte	-32
 1232 0192 10       		.byte	16
 1233 0193 08       		.byte	8
 1234 0194 08       		.byte	8
 1235 0195 10       		.byte	16
 1236 0196 E0       		.byte	-32
 1237 0197 00       		.byte	0
 1238 0198 00       		.byte	0
 1239 0199 0F       		.byte	15
 1240 019a 10       		.byte	16
 1241 019b 20       		.byte	32
 1242 019c 20       		.byte	32
 1243 019d 10       		.byte	16
 1244 019e 0F       		.byte	15
 1245 019f 00       		.byte	0
 1246 01a0 00       		.byte	0
 1247 01a1 00       		.byte	0
 1248 01a2 00       		.byte	0
 1249 01a3 00       		.byte	0
 1250 01a4 00       		.byte	0
 1251 01a5 00       		.byte	0
 1252 01a6 00       		.byte	0
 1253 01a7 00       		.byte	0
 1254 01a8 00       		.byte	0
 1255 01a9 00       		.byte	0
 1256 01aa 00       		.byte	0
 1257 01ab 00       		.byte	0
 1258 01ac 00       		.byte	0
 1259 01ad 00       		.byte	0
 1260 01ae 00       		.byte	0
 1261 01af 00       		.byte	0
 1262 01b0 00       		.byte	0
 1263 01b1 00       		.byte	0
 1264 01b2 00       		.byte	0
 1265 01b3 00       		.byte	0
 1266 01b4 00       		.byte	0
 1267 01b5 00       		.byte	0
 1268 01b6 00       		.byte	0
ARM GAS  /var/folders/9t/hshg14bj4r3bdmp8s0pp3jdw0000gn/T//ccxmgz9n.s 			page 30


 1269 01b7 00       		.byte	0
 1270 01b8 00       		.byte	0
 1271 01b9 00       		.byte	0
 1272 01ba 00       		.byte	0
 1273 01bb 00       		.byte	0
 1274 01bc 00       		.byte	0
 1275 01bd 00       		.byte	0
 1276 01be 00       		.byte	0
 1277 01bf 00       		.byte	0
 1278 01c0 08       		.byte	8
 1279 01c1 78       		.byte	120
 1280 01c2 88       		.byte	-120
 1281 01c3 00       		.byte	0
 1282 01c4 00       		.byte	0
 1283 01c5 C8       		.byte	-56
 1284 01c6 38       		.byte	56
 1285 01c7 08       		.byte	8
 1286 01c8 00       		.byte	0
 1287 01c9 00       		.byte	0
 1288 01ca 07       		.byte	7
 1289 01cb 38       		.byte	56
 1290 01cc 0E       		.byte	14
 1291 01cd 01       		.byte	1
 1292 01ce 00       		.byte	0
 1293 01cf 00       		.byte	0
 1294 01d0 00       		.byte	0
 1295 01d1 00       		.byte	0
 1296 01d2 00       		.byte	0
 1297 01d3 00       		.byte	0
 1298 01d4 00       		.byte	0
 1299 01d5 00       		.byte	0
 1300 01d6 00       		.byte	0
 1301 01d7 00       		.byte	0
 1302 01d8 00       		.byte	0
 1303 01d9 00       		.byte	0
 1304 01da 00       		.byte	0
 1305 01db 00       		.byte	0
 1306 01dc 00       		.byte	0
 1307 01dd 00       		.byte	0
 1308 01de 00       		.byte	0
 1309 01df 00       		.byte	0
 1310 01e0 00       		.byte	0
 1311 01e1 00       		.byte	0
 1312 01e2 00       		.byte	0
 1313 01e3 00       		.byte	0
 1314 01e4 00       		.byte	0
 1315 01e5 00       		.byte	0
 1316 01e6 00       		.byte	0
 1317 01e7 00       		.byte	0
 1318 01e8 00       		.byte	0
 1319 01e9 00       		.byte	0
 1320 01ea 00       		.byte	0
 1321 01eb 00       		.byte	0
 1322 01ec 00       		.byte	0
 1323 01ed 00       		.byte	0
 1324 01ee 00       		.byte	0
 1325 01ef 00       		.byte	0
ARM GAS  /var/folders/9t/hshg14bj4r3bdmp8s0pp3jdw0000gn/T//ccxmgz9n.s 			page 31


 1326 01f0 00       		.byte	0
 1327 01f1 00       		.byte	0
 1328 01f2 00       		.byte	0
 1329 01f3 00       		.byte	0
 1330 01f4 00       		.byte	0
 1331 01f5 00       		.byte	0
 1332 01f6 00       		.byte	0
 1333 01f7 00       		.byte	0
 1334 01f8 00       		.byte	0
 1335 01f9 00       		.byte	0
 1336 01fa 00       		.byte	0
 1337 01fb 00       		.byte	0
 1338 01fc 00       		.byte	0
 1339 01fd 00       		.byte	0
 1340 01fe 00       		.byte	0
 1341 01ff 00       		.byte	0
 1342 0200 00       		.byte	0
 1343 0201 00       		.byte	0
 1344 0202 00       		.byte	0
 1345 0203 00       		.byte	0
 1346 0204 00       		.byte	0
 1347 0205 00       		.byte	0
 1348 0206 00       		.byte	0
 1349 0207 00       		.byte	0
 1350 0208 00       		.byte	0
 1351 0209 00       		.byte	0
 1352 020a 00       		.byte	0
 1353 020b 00       		.byte	0
 1354 020c 00       		.byte	0
 1355 020d 00       		.byte	0
 1356 020e 00       		.byte	0
 1357 020f 00       		.byte	0
 1358 0210 08       		.byte	8
 1359 0211 F8       		.byte	-8
 1360 0212 08       		.byte	8
 1361 0213 08       		.byte	8
 1362 0214 08       		.byte	8
 1363 0215 08       		.byte	8
 1364 0216 F0       		.byte	-16
 1365 0217 00       		.byte	0
 1366 0218 20       		.byte	32
 1367 0219 3F       		.byte	63
 1368 021a 21       		.byte	33
 1369 021b 01       		.byte	1
 1370 021c 01       		.byte	1
 1371 021d 01       		.byte	1
 1372 021e 00       		.byte	0
 1373 021f 00       		.byte	0
 1374 0220 E0       		.byte	-32
 1375 0221 10       		.byte	16
 1376 0222 08       		.byte	8
 1377 0223 08       		.byte	8
 1378 0224 08       		.byte	8
 1379 0225 10       		.byte	16
 1380 0226 E0       		.byte	-32
 1381 0227 00       		.byte	0
 1382 0228 0F       		.byte	15
ARM GAS  /var/folders/9t/hshg14bj4r3bdmp8s0pp3jdw0000gn/T//ccxmgz9n.s 			page 32


 1383 0229 10       		.byte	16
 1384 022a 20       		.byte	32
 1385 022b 20       		.byte	32
 1386 022c 20       		.byte	32
 1387 022d 10       		.byte	16
 1388 022e 0F       		.byte	15
 1389 022f 00       		.byte	0
 1390 0230 08       		.byte	8
 1391 0231 F8       		.byte	-8
 1392 0232 00       		.byte	0
 1393 0233 F8       		.byte	-8
 1394 0234 00       		.byte	0
 1395 0235 F8       		.byte	-8
 1396 0236 08       		.byte	8
 1397 0237 00       		.byte	0
 1398 0238 00       		.byte	0
 1399 0239 03       		.byte	3
 1400 023a 3E       		.byte	62
 1401 023b 01       		.byte	1
 1402 023c 3E       		.byte	62
 1403 023d 03       		.byte	3
 1404 023e 00       		.byte	0
 1405 023f 00       		.byte	0
 1406 0240 00       		.byte	0
 1407 0241 00       		.byte	0
 1408 0242 00       		.byte	0
 1409 0243 00       		.byte	0
 1410 0244 00       		.byte	0
 1411 0245 00       		.byte	0
 1412 0246 00       		.byte	0
 1413 0247 00       		.byte	0
 1414 0248 00       		.byte	0
 1415 0249 00       		.byte	0
 1416 024a 00       		.byte	0
 1417 024b 00       		.byte	0
 1418 024c 00       		.byte	0
 1419 024d 00       		.byte	0
 1420 024e 00       		.byte	0
 1421 024f 00       		.byte	0
 1422 0250 00       		.byte	0
 1423 0251 00       		.byte	0
 1424 0252 00       		.byte	0
 1425 0253 C0       		.byte	-64
 1426 0254 C0       		.byte	-64
 1427 0255 00       		.byte	0
 1428 0256 00       		.byte	0
 1429 0257 00       		.byte	0
 1430 0258 00       		.byte	0
 1431 0259 00       		.byte	0
 1432 025a 00       		.byte	0
 1433 025b 30       		.byte	48
 1434 025c 30       		.byte	48
 1435 025d 00       		.byte	0
 1436 025e 00       		.byte	0
 1437 025f 00       		.byte	0
 1438 0260 00       		.byte	0
 1439 0261 00       		.byte	0
ARM GAS  /var/folders/9t/hshg14bj4r3bdmp8s0pp3jdw0000gn/T//ccxmgz9n.s 			page 33


 1440 0262 00       		.byte	0
 1441 0263 00       		.byte	0
 1442 0264 00       		.byte	0
 1443 0265 00       		.byte	0
 1444 0266 00       		.byte	0
 1445 0267 00       		.byte	0
 1446 0268 00       		.byte	0
 1447 0269 00       		.byte	0
 1448 026a 00       		.byte	0
 1449 026b 00       		.byte	0
 1450 026c 00       		.byte	0
 1451 026d 00       		.byte	0
 1452 026e 00       		.byte	0
 1453 026f 00       		.byte	0
 1454 0270 00       		.byte	0
 1455 0271 E0       		.byte	-32
 1456 0272 10       		.byte	16
 1457 0273 08       		.byte	8
 1458 0274 08       		.byte	8
 1459 0275 10       		.byte	16
 1460 0276 E0       		.byte	-32
 1461 0277 00       		.byte	0
 1462 0278 00       		.byte	0
 1463 0279 0F       		.byte	15
 1464 027a 10       		.byte	16
 1465 027b 20       		.byte	32
 1466 027c 20       		.byte	32
 1467 027d 10       		.byte	16
 1468 027e 0F       		.byte	15
 1469 027f 00       		.byte	0
 1470 0280 00       		.byte	0
 1471 0281 E0       		.byte	-32
 1472 0282 10       		.byte	16
 1473 0283 08       		.byte	8
 1474 0284 08       		.byte	8
 1475 0285 10       		.byte	16
 1476 0286 E0       		.byte	-32
 1477 0287 00       		.byte	0
 1478 0288 00       		.byte	0
 1479 0289 0F       		.byte	15
 1480 028a 10       		.byte	16
 1481 028b 20       		.byte	32
 1482 028c 20       		.byte	32
 1483 028d 10       		.byte	16
 1484 028e 0F       		.byte	15
 1485 028f 00       		.byte	0
 1486 0290 00       		.byte	0
 1487 0291 E0       		.byte	-32
 1488 0292 10       		.byte	16
 1489 0293 08       		.byte	8
 1490 0294 08       		.byte	8
 1491 0295 10       		.byte	16
 1492 0296 E0       		.byte	-32
 1493 0297 00       		.byte	0
 1494 0298 00       		.byte	0
 1495 0299 0F       		.byte	15
 1496 029a 10       		.byte	16
ARM GAS  /var/folders/9t/hshg14bj4r3bdmp8s0pp3jdw0000gn/T//ccxmgz9n.s 			page 34


 1497 029b 20       		.byte	32
 1498 029c 20       		.byte	32
 1499 029d 10       		.byte	16
 1500 029e 0F       		.byte	15
 1501 029f 00       		.byte	0
 1502 02a0 00       		.byte	0
 1503 02a1 E0       		.byte	-32
 1504 02a2 10       		.byte	16
 1505 02a3 08       		.byte	8
 1506 02a4 08       		.byte	8
 1507 02a5 10       		.byte	16
 1508 02a6 E0       		.byte	-32
 1509 02a7 00       		.byte	0
 1510 02a8 00       		.byte	0
 1511 02a9 0F       		.byte	15
 1512 02aa 10       		.byte	16
 1513 02ab 20       		.byte	32
 1514 02ac 20       		.byte	32
 1515 02ad 10       		.byte	16
 1516 02ae 0F       		.byte	15
 1517 02af 00       		.byte	0
 1518 02b0 00       		.byte	0
 1519 02b1 00       		.byte	0
 1520 02b2 00       		.byte	0
 1521 02b3 00       		.byte	0
 1522 02b4 00       		.byte	0
 1523 02b5 00       		.byte	0
 1524 02b6 00       		.byte	0
 1525 02b7 00       		.byte	0
 1526 02b8 00       		.byte	0
 1527 02b9 00       		.byte	0
 1528 02ba 00       		.byte	0
 1529 02bb 00       		.byte	0
 1530 02bc 00       		.byte	0
 1531 02bd 00       		.byte	0
 1532 02be 00       		.byte	0
 1533 02bf 00       		.byte	0
 1534 02c0 08       		.byte	8
 1535 02c1 F8       		.byte	-8
 1536 02c2 00       		.byte	0
 1537 02c3 F8       		.byte	-8
 1538 02c4 00       		.byte	0
 1539 02c5 F8       		.byte	-8
 1540 02c6 08       		.byte	8
 1541 02c7 00       		.byte	0
 1542 02c8 00       		.byte	0
 1543 02c9 03       		.byte	3
 1544 02ca 3E       		.byte	62
 1545 02cb 01       		.byte	1
 1546 02cc 3E       		.byte	62
 1547 02cd 03       		.byte	3
 1548 02ce 00       		.byte	0
 1549 02cf 00       		.byte	0
 1550 02d0 00       		.byte	0
 1551 02d1 00       		.byte	0
 1552 02d2 00       		.byte	0
 1553 02d3 00       		.byte	0
ARM GAS  /var/folders/9t/hshg14bj4r3bdmp8s0pp3jdw0000gn/T//ccxmgz9n.s 			page 35


 1554 02d4 00       		.byte	0
 1555 02d5 00       		.byte	0
 1556 02d6 00       		.byte	0
 1557 02d7 00       		.byte	0
 1558 02d8 00       		.byte	0
 1559 02d9 00       		.byte	0
 1560 02da 00       		.byte	0
 1561 02db 00       		.byte	0
 1562 02dc 00       		.byte	0
 1563 02dd 00       		.byte	0
 1564 02de 00       		.byte	0
 1565 02df 00       		.byte	0
 1566 02e0 00       		.byte	0
 1567 02e1 00       		.byte	0
 1568 02e2 00       		.byte	0
 1569 02e3 00       		.byte	0
 1570 02e4 00       		.byte	0
 1571 02e5 00       		.byte	0
 1572 02e6 00       		.byte	0
 1573 02e7 00       		.byte	0
 1574 02e8 00       		.byte	0
 1575 02e9 00       		.byte	0
 1576 02ea 00       		.byte	0
 1577 02eb 00       		.byte	0
 1578 02ec 00       		.byte	0
 1579 02ed 00       		.byte	0
 1580 02ee 00       		.byte	0
 1581 02ef 00       		.byte	0
 1582 02f0 00       		.byte	0
 1583 02f1 00       		.byte	0
 1584 02f2 00       		.byte	0
 1585 02f3 00       		.byte	0
 1586 02f4 00       		.byte	0
 1587 02f5 00       		.byte	0
 1588 02f6 00       		.byte	0
 1589 02f7 00       		.byte	0
 1590 02f8 00       		.byte	0
 1591 02f9 00       		.byte	0
 1592 02fa 00       		.byte	0
 1593 02fb 00       		.byte	0
 1594 02fc 00       		.byte	0
 1595 02fd 00       		.byte	0
 1596 02fe 00       		.byte	0
 1597 02ff 00       		.byte	0
 1598 0300 00       		.byte	0
 1599 0301 00       		.byte	0
 1600 0302 00       		.byte	0
 1601 0303 00       		.byte	0
 1602 0304 00       		.byte	0
 1603 0305 00       		.byte	0
 1604 0306 00       		.byte	0
 1605 0307 00       		.byte	0
 1606 0308 00       		.byte	0
 1607 0309 00       		.byte	0
 1608 030a 00       		.byte	0
 1609 030b 00       		.byte	0
 1610 030c 00       		.byte	0
ARM GAS  /var/folders/9t/hshg14bj4r3bdmp8s0pp3jdw0000gn/T//ccxmgz9n.s 			page 36


 1611 030d 00       		.byte	0
 1612 030e 00       		.byte	0
 1613 030f 00       		.byte	0
 1614 0310 00       		.byte	0
 1615 0311 70       		.byte	112
 1616 0312 88       		.byte	-120
 1617 0313 08       		.byte	8
 1618 0314 08       		.byte	8
 1619 0315 08       		.byte	8
 1620 0316 38       		.byte	56
 1621 0317 00       		.byte	0
 1622 0318 00       		.byte	0
 1623 0319 38       		.byte	56
 1624 031a 20       		.byte	32
 1625 031b 21       		.byte	33
 1626 031c 21       		.byte	33
 1627 031d 22       		.byte	34
 1628 031e 1C       		.byte	28
 1629 031f 00       		.byte	0
 1630 0320 08       		.byte	8
 1631 0321 F8       		.byte	-8
 1632 0322 88       		.byte	-120
 1633 0323 88       		.byte	-120
 1634 0324 E8       		.byte	-24
 1635 0325 08       		.byte	8
 1636 0326 10       		.byte	16
 1637 0327 00       		.byte	0
 1638 0328 20       		.byte	32
 1639 0329 3F       		.byte	63
 1640 032a 20       		.byte	32
 1641 032b 20       		.byte	32
 1642 032c 23       		.byte	35
 1643 032d 20       		.byte	32
 1644 032e 18       		.byte	24
 1645 032f 00       		.byte	0
 1646 0330 18       		.byte	24
 1647 0331 08       		.byte	8
 1648 0332 08       		.byte	8
 1649 0333 F8       		.byte	-8
 1650 0334 08       		.byte	8
 1651 0335 08       		.byte	8
 1652 0336 18       		.byte	24
 1653 0337 00       		.byte	0
 1654 0338 00       		.byte	0
 1655 0339 00       		.byte	0
 1656 033a 20       		.byte	32
 1657 033b 3F       		.byte	63
 1658 033c 20       		.byte	32
 1659 033d 00       		.byte	0
 1660 033e 00       		.byte	0
 1661 033f 00       		.byte	0
 1662 0340 00       		.byte	0
 1663 0341 00       		.byte	0
 1664 0342 00       		.byte	0
 1665 0343 00       		.byte	0
 1666 0344 00       		.byte	0
 1667 0345 00       		.byte	0
ARM GAS  /var/folders/9t/hshg14bj4r3bdmp8s0pp3jdw0000gn/T//ccxmgz9n.s 			page 37


 1668 0346 00       		.byte	0
 1669 0347 00       		.byte	0
 1670 0348 00       		.byte	0
 1671 0349 00       		.byte	0
 1672 034a 00       		.byte	0
 1673 034b 00       		.byte	0
 1674 034c 00       		.byte	0
 1675 034d 00       		.byte	0
 1676 034e 00       		.byte	0
 1677 034f 00       		.byte	0
 1678 0350 00       		.byte	0
 1679 0351 00       		.byte	0
 1680 0352 00       		.byte	0
 1681 0353 C0       		.byte	-64
 1682 0354 C0       		.byte	-64
 1683 0355 00       		.byte	0
 1684 0356 00       		.byte	0
 1685 0357 00       		.byte	0
 1686 0358 00       		.byte	0
 1687 0359 00       		.byte	0
 1688 035a 00       		.byte	0
 1689 035b 30       		.byte	48
 1690 035c 30       		.byte	48
 1691 035d 00       		.byte	0
 1692 035e 00       		.byte	0
 1693 035f 00       		.byte	0
 1694 0360 00       		.byte	0
 1695 0361 00       		.byte	0
 1696 0362 00       		.byte	0
 1697 0363 00       		.byte	0
 1698 0364 00       		.byte	0
 1699 0365 00       		.byte	0
 1700 0366 00       		.byte	0
 1701 0367 00       		.byte	0
 1702 0368 00       		.byte	0
 1703 0369 00       		.byte	0
 1704 036a 00       		.byte	0
 1705 036b 00       		.byte	0
 1706 036c 00       		.byte	0
 1707 036d 00       		.byte	0
 1708 036e 00       		.byte	0
 1709 036f 00       		.byte	0
 1710 0370 00       		.byte	0
 1711 0371 E0       		.byte	-32
 1712 0372 10       		.byte	16
 1713 0373 08       		.byte	8
 1714 0374 08       		.byte	8
 1715 0375 10       		.byte	16
 1716 0376 E0       		.byte	-32
 1717 0377 00       		.byte	0
 1718 0378 00       		.byte	0
 1719 0379 0F       		.byte	15
 1720 037a 10       		.byte	16
 1721 037b 20       		.byte	32
 1722 037c 20       		.byte	32
 1723 037d 10       		.byte	16
 1724 037e 0F       		.byte	15
ARM GAS  /var/folders/9t/hshg14bj4r3bdmp8s0pp3jdw0000gn/T//ccxmgz9n.s 			page 38


 1725 037f 00       		.byte	0
 1726 0380 00       		.byte	0
 1727 0381 E0       		.byte	-32
 1728 0382 10       		.byte	16
 1729 0383 08       		.byte	8
 1730 0384 08       		.byte	8
 1731 0385 10       		.byte	16
 1732 0386 E0       		.byte	-32
 1733 0387 00       		.byte	0
 1734 0388 00       		.byte	0
 1735 0389 0F       		.byte	15
 1736 038a 10       		.byte	16
 1737 038b 20       		.byte	32
 1738 038c 20       		.byte	32
 1739 038d 10       		.byte	16
 1740 038e 0F       		.byte	15
 1741 038f 00       		.byte	0
 1742 0390 00       		.byte	0
 1743 0391 E0       		.byte	-32
 1744 0392 10       		.byte	16
 1745 0393 08       		.byte	8
 1746 0394 08       		.byte	8
 1747 0395 10       		.byte	16
 1748 0396 E0       		.byte	-32
 1749 0397 00       		.byte	0
 1750 0398 00       		.byte	0
 1751 0399 0F       		.byte	15
 1752 039a 10       		.byte	16
 1753 039b 20       		.byte	32
 1754 039c 20       		.byte	32
 1755 039d 10       		.byte	16
 1756 039e 0F       		.byte	15
 1757 039f 00       		.byte	0
 1758 03a0 00       		.byte	0
 1759 03a1 E0       		.byte	-32
 1760 03a2 10       		.byte	16
 1761 03a3 08       		.byte	8
 1762 03a4 08       		.byte	8
 1763 03a5 10       		.byte	16
 1764 03a6 E0       		.byte	-32
 1765 03a7 00       		.byte	0
 1766 03a8 00       		.byte	0
 1767 03a9 0F       		.byte	15
 1768 03aa 10       		.byte	16
 1769 03ab 20       		.byte	32
 1770 03ac 20       		.byte	32
 1771 03ad 10       		.byte	16
 1772 03ae 0F       		.byte	15
 1773 03af 00       		.byte	0
 1774 03b0 00       		.byte	0
 1775 03b1 00       		.byte	0
 1776 03b2 00       		.byte	0
 1777 03b3 00       		.byte	0
 1778 03b4 00       		.byte	0
 1779 03b5 00       		.byte	0
 1780 03b6 00       		.byte	0
 1781 03b7 00       		.byte	0
ARM GAS  /var/folders/9t/hshg14bj4r3bdmp8s0pp3jdw0000gn/T//ccxmgz9n.s 			page 39


 1782 03b8 00       		.byte	0
 1783 03b9 00       		.byte	0
 1784 03ba 00       		.byte	0
 1785 03bb 00       		.byte	0
 1786 03bc 00       		.byte	0
 1787 03bd 00       		.byte	0
 1788 03be 00       		.byte	0
 1789 03bf 00       		.byte	0
 1790 03c0 08       		.byte	8
 1791 03c1 F8       		.byte	-8
 1792 03c2 00       		.byte	0
 1793 03c3 F8       		.byte	-8
 1794 03c4 00       		.byte	0
 1795 03c5 F8       		.byte	-8
 1796 03c6 08       		.byte	8
 1797 03c7 00       		.byte	0
 1798 03c8 00       		.byte	0
 1799 03c9 03       		.byte	3
 1800 03ca 3E       		.byte	62
 1801 03cb 01       		.byte	1
 1802 03cc 3E       		.byte	62
 1803 03cd 03       		.byte	3
 1804 03ce 00       		.byte	0
 1805 03cf 00       		.byte	0
 1806 03d0 00       		.byte	0
 1807 03d1 00       		.byte	0
 1808 03d2 00       		.byte	0
 1809 03d3 00       		.byte	0
 1810 03d4 00       		.byte	0
 1811 03d5 00       		.byte	0
 1812 03d6 00       		.byte	0
 1813 03d7 00       		.byte	0
 1814 03d8 00       		.byte	0
 1815 03d9 00       		.byte	0
 1816 03da 00       		.byte	0
 1817 03db 00       		.byte	0
 1818 03dc 00       		.byte	0
 1819 03dd 00       		.byte	0
 1820 03de 00       		.byte	0
 1821 03df 00       		.byte	0
 1822 03e0 00       		.byte	0
 1823 03e1 00       		.byte	0
 1824 03e2 00       		.byte	0
 1825 03e3 00       		.byte	0
 1826 03e4 00       		.byte	0
 1827 03e5 00       		.byte	0
 1828 03e6 00       		.byte	0
 1829 03e7 00       		.byte	0
 1830 03e8 00       		.byte	0
 1831 03e9 00       		.byte	0
 1832 03ea 00       		.byte	0
 1833 03eb 00       		.byte	0
 1834 03ec 00       		.byte	0
 1835 03ed 00       		.byte	0
 1836 03ee 00       		.byte	0
 1837 03ef 00       		.byte	0
 1838 03f0 00       		.byte	0
ARM GAS  /var/folders/9t/hshg14bj4r3bdmp8s0pp3jdw0000gn/T//ccxmgz9n.s 			page 40


 1839 03f1 00       		.byte	0
 1840 03f2 00       		.byte	0
 1841 03f3 00       		.byte	0
 1842 03f4 00       		.byte	0
 1843 03f5 00       		.byte	0
 1844 03f6 00       		.byte	0
 1845 03f7 00       		.byte	0
 1846 03f8 00       		.byte	0
 1847 03f9 00       		.byte	0
 1848 03fa 00       		.byte	0
 1849 03fb 00       		.byte	0
 1850 03fc 00       		.byte	0
 1851 03fd 00       		.byte	0
 1852 03fe 00       		.byte	0
 1853 03ff 00       		.byte	0
 1854              		.section	.data.array2,"aw",%progbits
 1855              		.align	2
 1856              		.set	.LANCHOR5,. + 0
 1859              	array2:
 1860 0000 00       		.byte	0
 1861 0001 00       		.byte	0
 1862 0002 00       		.byte	0
 1863 0003 00       		.byte	0
 1864 0004 00       		.byte	0
 1865 0005 00       		.byte	0
 1866 0006 00       		.byte	0
 1867 0007 00       		.byte	0
 1868 0008 00       		.byte	0
 1869 0009 00       		.byte	0
 1870 000a 00       		.byte	0
 1871 000b 00       		.byte	0
 1872 000c 00       		.byte	0
 1873 000d 00       		.byte	0
 1874 000e 00       		.byte	0
 1875 000f 00       		.byte	0
 1876 0010 00       		.byte	0
 1877 0011 00       		.byte	0
 1878 0012 00       		.byte	0
 1879 0013 00       		.byte	0
 1880 0014 00       		.byte	0
 1881 0015 00       		.byte	0
 1882 0016 00       		.byte	0
 1883 0017 00       		.byte	0
 1884 0018 00       		.byte	0
 1885 0019 00       		.byte	0
 1886 001a 00       		.byte	0
 1887 001b 00       		.byte	0
 1888 001c 00       		.byte	0
 1889 001d 00       		.byte	0
 1890 001e 00       		.byte	0
 1891 001f 00       		.byte	0
 1892 0020 00       		.byte	0
 1893 0021 00       		.byte	0
 1894 0022 00       		.byte	0
 1895 0023 00       		.byte	0
 1896 0024 00       		.byte	0
 1897 0025 00       		.byte	0
ARM GAS  /var/folders/9t/hshg14bj4r3bdmp8s0pp3jdw0000gn/T//ccxmgz9n.s 			page 41


 1898 0026 00       		.byte	0
 1899 0027 00       		.byte	0
 1900 0028 00       		.byte	0
 1901 0029 00       		.byte	0
 1902 002a 00       		.byte	0
 1903 002b 00       		.byte	0
 1904 002c 00       		.byte	0
 1905 002d 00       		.byte	0
 1906 002e 00       		.byte	0
 1907 002f 00       		.byte	0
 1908 0030 00       		.byte	0
 1909 0031 00       		.byte	0
 1910 0032 00       		.byte	0
 1911 0033 00       		.byte	0
 1912 0034 00       		.byte	0
 1913 0035 00       		.byte	0
 1914 0036 00       		.byte	0
 1915 0037 00       		.byte	0
 1916 0038 00       		.byte	0
 1917 0039 00       		.byte	0
 1918 003a 00       		.byte	0
 1919 003b 00       		.byte	0
 1920 003c 00       		.byte	0
 1921 003d 00       		.byte	0
 1922 003e 00       		.byte	0
 1923 003f 00       		.byte	0
 1924 0040 00       		.byte	0
 1925 0041 00       		.byte	0
 1926 0042 00       		.byte	0
 1927 0043 00       		.byte	0
 1928 0044 00       		.byte	0
 1929 0045 00       		.byte	0
 1930 0046 00       		.byte	0
 1931 0047 00       		.byte	0
 1932 0048 00       		.byte	0
 1933 0049 00       		.byte	0
 1934 004a 00       		.byte	0
 1935 004b 00       		.byte	0
 1936 004c 00       		.byte	0
 1937 004d 00       		.byte	0
 1938 004e 00       		.byte	0
 1939 004f 00       		.byte	0
 1940 0050 00       		.byte	0
 1941 0051 00       		.byte	0
 1942 0052 00       		.byte	0
 1943 0053 00       		.byte	0
 1944 0054 00       		.byte	0
 1945 0055 00       		.byte	0
 1946 0056 00       		.byte	0
 1947 0057 00       		.byte	0
 1948 0058 00       		.byte	0
 1949 0059 00       		.byte	0
 1950 005a 00       		.byte	0
 1951 005b 00       		.byte	0
 1952 005c 00       		.byte	0
 1953 005d 00       		.byte	0
 1954 005e 00       		.byte	0
ARM GAS  /var/folders/9t/hshg14bj4r3bdmp8s0pp3jdw0000gn/T//ccxmgz9n.s 			page 42


 1955 005f 00       		.byte	0
 1956 0060 00       		.byte	0
 1957 0061 00       		.byte	0
 1958 0062 00       		.byte	0
 1959 0063 00       		.byte	0
 1960 0064 00       		.byte	0
 1961 0065 00       		.byte	0
 1962 0066 00       		.byte	0
 1963 0067 00       		.byte	0
 1964 0068 00       		.byte	0
 1965 0069 00       		.byte	0
 1966 006a 00       		.byte	0
 1967 006b 00       		.byte	0
 1968 006c 00       		.byte	0
 1969 006d 00       		.byte	0
 1970 006e 00       		.byte	0
 1971 006f 00       		.byte	0
 1972 0070 00       		.byte	0
 1973 0071 00       		.byte	0
 1974 0072 00       		.byte	0
 1975 0073 00       		.byte	0
 1976 0074 00       		.byte	0
 1977 0075 00       		.byte	0
 1978 0076 00       		.byte	0
 1979 0077 00       		.byte	0
 1980 0078 00       		.byte	0
 1981 0079 00       		.byte	0
 1982 007a 00       		.byte	0
 1983 007b 00       		.byte	0
 1984 007c 00       		.byte	0
 1985 007d 00       		.byte	0
 1986 007e 00       		.byte	0
 1987 007f 00       		.byte	0
 1988 0080 00       		.byte	0
 1989 0081 00       		.byte	0
 1990 0082 00       		.byte	0
 1991 0083 00       		.byte	0
 1992 0084 00       		.byte	0
 1993 0085 00       		.byte	0
 1994 0086 00       		.byte	0
 1995 0087 00       		.byte	0
 1996 0088 00       		.byte	0
 1997 0089 00       		.byte	0
 1998 008a 00       		.byte	0
 1999 008b 00       		.byte	0
 2000 008c 00       		.byte	0
 2001 008d 00       		.byte	0
 2002 008e 00       		.byte	0
 2003 008f 00       		.byte	0
 2004 0090 00       		.byte	0
 2005 0091 00       		.byte	0
 2006 0092 00       		.byte	0
 2007 0093 00       		.byte	0
 2008 0094 00       		.byte	0
 2009 0095 00       		.byte	0
 2010 0096 00       		.byte	0
 2011 0097 00       		.byte	0
ARM GAS  /var/folders/9t/hshg14bj4r3bdmp8s0pp3jdw0000gn/T//ccxmgz9n.s 			page 43


 2012 0098 00       		.byte	0
 2013 0099 00       		.byte	0
 2014 009a 00       		.byte	0
 2015 009b 00       		.byte	0
 2016 009c 00       		.byte	0
 2017 009d 00       		.byte	0
 2018 009e 00       		.byte	0
 2019 009f 00       		.byte	0
 2020 00a0 00       		.byte	0
 2021 00a1 00       		.byte	0
 2022 00a2 00       		.byte	0
 2023 00a3 00       		.byte	0
 2024 00a4 00       		.byte	0
 2025 00a5 00       		.byte	0
 2026 00a6 00       		.byte	0
 2027 00a7 00       		.byte	0
 2028 00a8 00       		.byte	0
 2029 00a9 00       		.byte	0
 2030 00aa 00       		.byte	0
 2031 00ab 00       		.byte	0
 2032 00ac 00       		.byte	0
 2033 00ad 00       		.byte	0
 2034 00ae 00       		.byte	0
 2035 00af 00       		.byte	0
 2036 00b0 00       		.byte	0
 2037 00b1 00       		.byte	0
 2038 00b2 00       		.byte	0
 2039 00b3 00       		.byte	0
 2040 00b4 00       		.byte	0
 2041 00b5 00       		.byte	0
 2042 00b6 00       		.byte	0
 2043 00b7 00       		.byte	0
 2044 00b8 00       		.byte	0
 2045 00b9 00       		.byte	0
 2046 00ba 00       		.byte	0
 2047 00bb 00       		.byte	0
 2048 00bc 00       		.byte	0
 2049 00bd 00       		.byte	0
 2050 00be 00       		.byte	0
 2051 00bf 00       		.byte	0
 2052 00c0 00       		.byte	0
 2053 00c1 00       		.byte	0
 2054 00c2 00       		.byte	0
 2055 00c3 00       		.byte	0
 2056 00c4 00       		.byte	0
 2057 00c5 00       		.byte	0
 2058 00c6 00       		.byte	0
 2059 00c7 00       		.byte	0
 2060 00c8 00       		.byte	0
 2061 00c9 00       		.byte	0
 2062 00ca 00       		.byte	0
 2063 00cb 00       		.byte	0
 2064 00cc 00       		.byte	0
 2065 00cd 00       		.byte	0
 2066 00ce 00       		.byte	0
 2067 00cf 00       		.byte	0
 2068 00d0 00       		.byte	0
ARM GAS  /var/folders/9t/hshg14bj4r3bdmp8s0pp3jdw0000gn/T//ccxmgz9n.s 			page 44


 2069 00d1 00       		.byte	0
 2070 00d2 00       		.byte	0
 2071 00d3 00       		.byte	0
 2072 00d4 00       		.byte	0
 2073 00d5 00       		.byte	0
 2074 00d6 00       		.byte	0
 2075 00d7 00       		.byte	0
 2076 00d8 00       		.byte	0
 2077 00d9 00       		.byte	0
 2078 00da 00       		.byte	0
 2079 00db 00       		.byte	0
 2080 00dc 00       		.byte	0
 2081 00dd 00       		.byte	0
 2082 00de 00       		.byte	0
 2083 00df 00       		.byte	0
 2084 00e0 00       		.byte	0
 2085 00e1 00       		.byte	0
 2086 00e2 00       		.byte	0
 2087 00e3 00       		.byte	0
 2088 00e4 00       		.byte	0
 2089 00e5 00       		.byte	0
 2090 00e6 00       		.byte	0
 2091 00e7 00       		.byte	0
 2092 00e8 00       		.byte	0
 2093 00e9 00       		.byte	0
 2094 00ea 00       		.byte	0
 2095 00eb 00       		.byte	0
 2096 00ec 00       		.byte	0
 2097 00ed 00       		.byte	0
 2098 00ee 00       		.byte	0
 2099 00ef 00       		.byte	0
 2100 00f0 00       		.byte	0
 2101 00f1 00       		.byte	0
 2102 00f2 00       		.byte	0
 2103 00f3 00       		.byte	0
 2104 00f4 00       		.byte	0
 2105 00f5 00       		.byte	0
 2106 00f6 00       		.byte	0
 2107 00f7 00       		.byte	0
 2108 00f8 00       		.byte	0
 2109 00f9 00       		.byte	0
 2110 00fa 00       		.byte	0
 2111 00fb 00       		.byte	0
 2112 00fc 00       		.byte	0
 2113 00fd 00       		.byte	0
 2114 00fe 00       		.byte	0
 2115 00ff 00       		.byte	0
 2116 0100 00       		.byte	0
 2117 0101 00       		.byte	0
 2118 0102 00       		.byte	0
 2119 0103 00       		.byte	0
 2120 0104 00       		.byte	0
 2121 0105 00       		.byte	0
 2122 0106 00       		.byte	0
 2123 0107 00       		.byte	0
 2124 0108 00       		.byte	0
 2125 0109 00       		.byte	0
ARM GAS  /var/folders/9t/hshg14bj4r3bdmp8s0pp3jdw0000gn/T//ccxmgz9n.s 			page 45


 2126 010a 00       		.byte	0
 2127 010b 00       		.byte	0
 2128 010c 00       		.byte	0
 2129 010d 00       		.byte	0
 2130 010e 00       		.byte	0
 2131 010f 00       		.byte	0
 2132 0110 E0       		.byte	-32
 2133 0111 10       		.byte	16
 2134 0112 08       		.byte	8
 2135 0113 08       		.byte	8
 2136 0114 08       		.byte	8
 2137 0115 10       		.byte	16
 2138 0116 E0       		.byte	-32
 2139 0117 00       		.byte	0
 2140 0118 0F       		.byte	15
 2141 0119 10       		.byte	16
 2142 011a 20       		.byte	32
 2143 011b 20       		.byte	32
 2144 011c 20       		.byte	32
 2145 011d 10       		.byte	16
 2146 011e 0F       		.byte	15
 2147 011f 00       		.byte	0
 2148 0120 08       		.byte	8
 2149 0121 78       		.byte	120
 2150 0122 88       		.byte	-120
 2151 0123 00       		.byte	0
 2152 0124 00       		.byte	0
 2153 0125 C8       		.byte	-56
 2154 0126 38       		.byte	56
 2155 0127 08       		.byte	8
 2156 0128 00       		.byte	0
 2157 0129 00       		.byte	0
 2158 012a 07       		.byte	7
 2159 012b 38       		.byte	56
 2160 012c 0E       		.byte	14
 2161 012d 01       		.byte	1
 2162 012e 00       		.byte	0
 2163 012f 00       		.byte	0
 2164 0130 08       		.byte	8
 2165 0131 F8       		.byte	-8
 2166 0132 88       		.byte	-120
 2167 0133 88       		.byte	-120
 2168 0134 E8       		.byte	-24
 2169 0135 08       		.byte	8
 2170 0136 10       		.byte	16
 2171 0137 00       		.byte	0
 2172 0138 20       		.byte	32
 2173 0139 3F       		.byte	63
 2174 013a 20       		.byte	32
 2175 013b 20       		.byte	32
 2176 013c 23       		.byte	35
 2177 013d 20       		.byte	32
 2178 013e 18       		.byte	24
 2179 013f 00       		.byte	0
 2180 0140 08       		.byte	8
 2181 0141 F8       		.byte	-8
 2182 0142 88       		.byte	-120
ARM GAS  /var/folders/9t/hshg14bj4r3bdmp8s0pp3jdw0000gn/T//ccxmgz9n.s 			page 46


 2183 0143 88       		.byte	-120
 2184 0144 88       		.byte	-120
 2185 0145 88       		.byte	-120
 2186 0146 70       		.byte	112
 2187 0147 00       		.byte	0
 2188 0148 20       		.byte	32
 2189 0149 3F       		.byte	63
 2190 014a 20       		.byte	32
 2191 014b 00       		.byte	0
 2192 014c 03       		.byte	3
 2193 014d 0C       		.byte	12
 2194 014e 30       		.byte	48
 2195 014f 20       		.byte	32
 2196 0150 00       		.byte	0
 2197 0151 00       		.byte	0
 2198 0152 00       		.byte	0
 2199 0153 00       		.byte	0
 2200 0154 00       		.byte	0
 2201 0155 00       		.byte	0
 2202 0156 00       		.byte	0
 2203 0157 00       		.byte	0
 2204 0158 00       		.byte	0
 2205 0159 90       		.byte	-112
 2206 015a 70       		.byte	112
 2207 015b 00       		.byte	0
 2208 015c 00       		.byte	0
 2209 015d 00       		.byte	0
 2210 015e 00       		.byte	0
 2211 015f 00       		.byte	0
 2212 0160 08       		.byte	8
 2213 0161 F8       		.byte	-8
 2214 0162 08       		.byte	8
 2215 0163 08       		.byte	8
 2216 0164 08       		.byte	8
 2217 0165 08       		.byte	8
 2218 0166 F0       		.byte	-16
 2219 0167 00       		.byte	0
 2220 0168 20       		.byte	32
 2221 0169 3F       		.byte	63
 2222 016a 21       		.byte	33
 2223 016b 01       		.byte	1
 2224 016c 01       		.byte	1
 2225 016d 01       		.byte	1
 2226 016e 00       		.byte	0
 2227 016f 00       		.byte	0
 2228 0170 E0       		.byte	-32
 2229 0171 10       		.byte	16
 2230 0172 08       		.byte	8
 2231 0173 08       		.byte	8
 2232 0174 08       		.byte	8
 2233 0175 10       		.byte	16
 2234 0176 E0       		.byte	-32
 2235 0177 00       		.byte	0
 2236 0178 0F       		.byte	15
 2237 0179 10       		.byte	16
 2238 017a 20       		.byte	32
 2239 017b 20       		.byte	32
ARM GAS  /var/folders/9t/hshg14bj4r3bdmp8s0pp3jdw0000gn/T//ccxmgz9n.s 			page 47


 2240 017c 20       		.byte	32
 2241 017d 10       		.byte	16
 2242 017e 0F       		.byte	15
 2243 017f 00       		.byte	0
 2244 0180 08       		.byte	8
 2245 0181 F8       		.byte	-8
 2246 0182 00       		.byte	0
 2247 0183 F8       		.byte	-8
 2248 0184 00       		.byte	0
 2249 0185 F8       		.byte	-8
 2250 0186 08       		.byte	8
 2251 0187 00       		.byte	0
 2252 0188 00       		.byte	0
 2253 0189 03       		.byte	3
 2254 018a 3E       		.byte	62
 2255 018b 01       		.byte	1
 2256 018c 3E       		.byte	62
 2257 018d 03       		.byte	3
 2258 018e 00       		.byte	0
 2259 018f 00       		.byte	0
 2260 0190 08       		.byte	8
 2261 0191 F8       		.byte	-8
 2262 0192 88       		.byte	-120
 2263 0193 88       		.byte	-120
 2264 0194 E8       		.byte	-24
 2265 0195 08       		.byte	8
 2266 0196 10       		.byte	16
 2267 0197 00       		.byte	0
 2268 0198 20       		.byte	32
 2269 0199 3F       		.byte	63
 2270 019a 20       		.byte	32
 2271 019b 20       		.byte	32
 2272 019c 23       		.byte	35
 2273 019d 20       		.byte	32
 2274 019e 18       		.byte	24
 2275 019f 00       		.byte	0
 2276 01a0 08       		.byte	8
 2277 01a1 F8       		.byte	-8
 2278 01a2 88       		.byte	-120
 2279 01a3 88       		.byte	-120
 2280 01a4 88       		.byte	-120
 2281 01a5 88       		.byte	-120
 2282 01a6 70       		.byte	112
 2283 01a7 00       		.byte	0
 2284 01a8 20       		.byte	32
 2285 01a9 3F       		.byte	63
 2286 01aa 20       		.byte	32
 2287 01ab 00       		.byte	0
 2288 01ac 03       		.byte	3
 2289 01ad 0C       		.byte	12
 2290 01ae 30       		.byte	48
 2291 01af 20       		.byte	32
 2292 01b0 00       		.byte	0
 2293 01b1 00       		.byte	0
 2294 01b2 00       		.byte	0
 2295 01b3 00       		.byte	0
 2296 01b4 00       		.byte	0
ARM GAS  /var/folders/9t/hshg14bj4r3bdmp8s0pp3jdw0000gn/T//ccxmgz9n.s 			page 48


 2297 01b5 00       		.byte	0
 2298 01b6 00       		.byte	0
 2299 01b7 00       		.byte	0
 2300 01b8 00       		.byte	0
 2301 01b9 00       		.byte	0
 2302 01ba 00       		.byte	0
 2303 01bb 00       		.byte	0
 2304 01bc 00       		.byte	0
 2305 01bd 00       		.byte	0
 2306 01be 00       		.byte	0
 2307 01bf 00       		.byte	0
 2308 01c0 00       		.byte	0
 2309 01c1 00       		.byte	0
 2310 01c2 00       		.byte	0
 2311 01c3 00       		.byte	0
 2312 01c4 00       		.byte	0
 2313 01c5 00       		.byte	0
 2314 01c6 00       		.byte	0
 2315 01c7 00       		.byte	0
 2316 01c8 00       		.byte	0
 2317 01c9 00       		.byte	0
 2318 01ca 00       		.byte	0
 2319 01cb 00       		.byte	0
 2320 01cc 00       		.byte	0
 2321 01cd 00       		.byte	0
 2322 01ce 00       		.byte	0
 2323 01cf 00       		.byte	0
 2324 01d0 00       		.byte	0
 2325 01d1 00       		.byte	0
 2326 01d2 00       		.byte	0
 2327 01d3 00       		.byte	0
 2328 01d4 00       		.byte	0
 2329 01d5 00       		.byte	0
 2330 01d6 00       		.byte	0
 2331 01d7 00       		.byte	0
 2332 01d8 00       		.byte	0
 2333 01d9 00       		.byte	0
 2334 01da 00       		.byte	0
 2335 01db 00       		.byte	0
 2336 01dc 00       		.byte	0
 2337 01dd 00       		.byte	0
 2338 01de 00       		.byte	0
 2339 01df 00       		.byte	0
 2340 01e0 00       		.byte	0
 2341 01e1 00       		.byte	0
 2342 01e2 00       		.byte	0
 2343 01e3 00       		.byte	0
 2344 01e4 00       		.byte	0
 2345 01e5 00       		.byte	0
 2346 01e6 00       		.byte	0
 2347 01e7 00       		.byte	0
 2348 01e8 00       		.byte	0
 2349 01e9 00       		.byte	0
 2350 01ea 00       		.byte	0
 2351 01eb 00       		.byte	0
 2352 01ec 00       		.byte	0
 2353 01ed 00       		.byte	0
ARM GAS  /var/folders/9t/hshg14bj4r3bdmp8s0pp3jdw0000gn/T//ccxmgz9n.s 			page 49


 2354 01ee 00       		.byte	0
 2355 01ef 00       		.byte	0
 2356 01f0 00       		.byte	0
 2357 01f1 00       		.byte	0
 2358 01f2 00       		.byte	0
 2359 01f3 00       		.byte	0
 2360 01f4 00       		.byte	0
 2361 01f5 00       		.byte	0
 2362 01f6 00       		.byte	0
 2363 01f7 00       		.byte	0
 2364 01f8 00       		.byte	0
 2365 01f9 00       		.byte	0
 2366 01fa 00       		.byte	0
 2367 01fb 00       		.byte	0
 2368 01fc 00       		.byte	0
 2369 01fd 00       		.byte	0
 2370 01fe 00       		.byte	0
 2371 01ff 00       		.byte	0
 2372 0200 00       		.byte	0
 2373 0201 00       		.byte	0
 2374 0202 00       		.byte	0
 2375 0203 00       		.byte	0
 2376 0204 00       		.byte	0
 2377 0205 00       		.byte	0
 2378 0206 00       		.byte	0
 2379 0207 00       		.byte	0
 2380 0208 00       		.byte	0
 2381 0209 00       		.byte	0
 2382 020a 00       		.byte	0
 2383 020b 00       		.byte	0
 2384 020c 00       		.byte	0
 2385 020d 00       		.byte	0
 2386 020e 00       		.byte	0
 2387 020f 00       		.byte	0
 2388 0210 08       		.byte	8
 2389 0211 F8       		.byte	-8
 2390 0212 08       		.byte	8
 2391 0213 08       		.byte	8
 2392 0214 08       		.byte	8
 2393 0215 08       		.byte	8
 2394 0216 F0       		.byte	-16
 2395 0217 00       		.byte	0
 2396 0218 20       		.byte	32
 2397 0219 3F       		.byte	63
 2398 021a 21       		.byte	33
 2399 021b 01       		.byte	1
 2400 021c 01       		.byte	1
 2401 021d 01       		.byte	1
 2402 021e 00       		.byte	0
 2403 021f 00       		.byte	0
 2404 0220 08       		.byte	8
 2405 0221 F8       		.byte	-8
 2406 0222 08       		.byte	8
 2407 0223 00       		.byte	0
 2408 0224 00       		.byte	0
 2409 0225 00       		.byte	0
 2410 0226 00       		.byte	0
ARM GAS  /var/folders/9t/hshg14bj4r3bdmp8s0pp3jdw0000gn/T//ccxmgz9n.s 			page 50


 2411 0227 00       		.byte	0
 2412 0228 20       		.byte	32
 2413 0229 3F       		.byte	63
 2414 022a 20       		.byte	32
 2415 022b 20       		.byte	32
 2416 022c 20       		.byte	32
 2417 022d 20       		.byte	32
 2418 022e 30       		.byte	48
 2419 022f 00       		.byte	0
 2420 0230 08       		.byte	8
 2421 0231 F8       		.byte	-8
 2422 0232 88       		.byte	-120
 2423 0233 88       		.byte	-120
 2424 0234 E8       		.byte	-24
 2425 0235 08       		.byte	8
 2426 0236 10       		.byte	16
 2427 0237 00       		.byte	0
 2428 0238 20       		.byte	32
 2429 0239 3F       		.byte	63
 2430 023a 20       		.byte	32
 2431 023b 20       		.byte	32
 2432 023c 23       		.byte	35
 2433 023d 20       		.byte	32
 2434 023e 18       		.byte	24
 2435 023f 00       		.byte	0
 2436 0240 00       		.byte	0
 2437 0241 00       		.byte	0
 2438 0242 C0       		.byte	-64
 2439 0243 38       		.byte	56
 2440 0244 E0       		.byte	-32
 2441 0245 00       		.byte	0
 2442 0246 00       		.byte	0
 2443 0247 00       		.byte	0
 2444 0248 20       		.byte	32
 2445 0249 3C       		.byte	60
 2446 024a 23       		.byte	35
 2447 024b 02       		.byte	2
 2448 024c 02       		.byte	2
 2449 024d 27       		.byte	39
 2450 024e 38       		.byte	56
 2451 024f 20       		.byte	32
 2452 0250 00       		.byte	0
 2453 0251 70       		.byte	112
 2454 0252 88       		.byte	-120
 2455 0253 08       		.byte	8
 2456 0254 08       		.byte	8
 2457 0255 08       		.byte	8
 2458 0256 38       		.byte	56
 2459 0257 00       		.byte	0
 2460 0258 00       		.byte	0
 2461 0259 38       		.byte	56
 2462 025a 20       		.byte	32
 2463 025b 21       		.byte	33
 2464 025c 21       		.byte	33
 2465 025d 22       		.byte	34
 2466 025e 1C       		.byte	28
 2467 025f 00       		.byte	0
ARM GAS  /var/folders/9t/hshg14bj4r3bdmp8s0pp3jdw0000gn/T//ccxmgz9n.s 			page 51


 2468 0260 08       		.byte	8
 2469 0261 F8       		.byte	-8
 2470 0262 88       		.byte	-120
 2471 0263 88       		.byte	-120
 2472 0264 E8       		.byte	-24
 2473 0265 08       		.byte	8
 2474 0266 10       		.byte	16
 2475 0267 00       		.byte	0
 2476 0268 20       		.byte	32
 2477 0269 3F       		.byte	63
 2478 026a 20       		.byte	32
 2479 026b 20       		.byte	32
 2480 026c 23       		.byte	35
 2481 026d 20       		.byte	32
 2482 026e 18       		.byte	24
 2483 026f 00       		.byte	0
 2484 0270 00       		.byte	0
 2485 0271 00       		.byte	0
 2486 0272 00       		.byte	0
 2487 0273 00       		.byte	0
 2488 0274 00       		.byte	0
 2489 0275 00       		.byte	0
 2490 0276 00       		.byte	0
 2491 0277 00       		.byte	0
 2492 0278 00       		.byte	0
 2493 0279 90       		.byte	-112
 2494 027a 70       		.byte	112
 2495 027b 00       		.byte	0
 2496 027c 00       		.byte	0
 2497 027d 00       		.byte	0
 2498 027e 00       		.byte	0
 2499 027f 00       		.byte	0
 2500 0280 00       		.byte	0
 2501 0281 00       		.byte	0
 2502 0282 00       		.byte	0
 2503 0283 00       		.byte	0
 2504 0284 00       		.byte	0
 2505 0285 00       		.byte	0
 2506 0286 00       		.byte	0
 2507 0287 00       		.byte	0
 2508 0288 00       		.byte	0
 2509 0289 00       		.byte	0
 2510 028a 00       		.byte	0
 2511 028b 00       		.byte	0
 2512 028c 00       		.byte	0
 2513 028d 00       		.byte	0
 2514 028e 00       		.byte	0
 2515 028f 00       		.byte	0
 2516 0290 08       		.byte	8
 2517 0291 F8       		.byte	-8
 2518 0292 88       		.byte	-120
 2519 0293 88       		.byte	-120
 2520 0294 88       		.byte	-120
 2521 0295 88       		.byte	-120
 2522 0296 70       		.byte	112
 2523 0297 00       		.byte	0
 2524 0298 20       		.byte	32
ARM GAS  /var/folders/9t/hshg14bj4r3bdmp8s0pp3jdw0000gn/T//ccxmgz9n.s 			page 52


 2525 0299 3F       		.byte	63
 2526 029a 20       		.byte	32
 2527 029b 00       		.byte	0
 2528 029c 03       		.byte	3
 2529 029d 0C       		.byte	12
 2530 029e 30       		.byte	48
 2531 029f 20       		.byte	32
 2532 02a0 08       		.byte	8
 2533 02a1 F8       		.byte	-8
 2534 02a2 88       		.byte	-120
 2535 02a3 88       		.byte	-120
 2536 02a4 E8       		.byte	-24
 2537 02a5 08       		.byte	8
 2538 02a6 10       		.byte	16
 2539 02a7 00       		.byte	0
 2540 02a8 20       		.byte	32
 2541 02a9 3F       		.byte	63
 2542 02aa 20       		.byte	32
 2543 02ab 20       		.byte	32
 2544 02ac 23       		.byte	35
 2545 02ad 20       		.byte	32
 2546 02ae 18       		.byte	24
 2547 02af 00       		.byte	0
 2548 02b0 00       		.byte	0
 2549 02b1 70       		.byte	112
 2550 02b2 88       		.byte	-120
 2551 02b3 08       		.byte	8
 2552 02b4 08       		.byte	8
 2553 02b5 08       		.byte	8
 2554 02b6 38       		.byte	56
 2555 02b7 00       		.byte	0
 2556 02b8 00       		.byte	0
 2557 02b9 38       		.byte	56
 2558 02ba 20       		.byte	32
 2559 02bb 21       		.byte	33
 2560 02bc 21       		.byte	33
 2561 02bd 22       		.byte	34
 2562 02be 1C       		.byte	28
 2563 02bf 00       		.byte	0
 2564 02c0 08       		.byte	8
 2565 02c1 F8       		.byte	-8
 2566 02c2 88       		.byte	-120
 2567 02c3 88       		.byte	-120
 2568 02c4 E8       		.byte	-24
 2569 02c5 08       		.byte	8
 2570 02c6 10       		.byte	16
 2571 02c7 00       		.byte	0
 2572 02c8 20       		.byte	32
 2573 02c9 3F       		.byte	63
 2574 02ca 20       		.byte	32
 2575 02cb 20       		.byte	32
 2576 02cc 23       		.byte	35
 2577 02cd 20       		.byte	32
 2578 02ce 18       		.byte	24
 2579 02cf 00       		.byte	0
 2580 02d0 18       		.byte	24
 2581 02d1 08       		.byte	8
ARM GAS  /var/folders/9t/hshg14bj4r3bdmp8s0pp3jdw0000gn/T//ccxmgz9n.s 			page 53


 2582 02d2 08       		.byte	8
 2583 02d3 F8       		.byte	-8
 2584 02d4 08       		.byte	8
 2585 02d5 08       		.byte	8
 2586 02d6 18       		.byte	24
 2587 02d7 00       		.byte	0
 2588 02d8 00       		.byte	0
 2589 02d9 00       		.byte	0
 2590 02da 20       		.byte	32
 2591 02db 3F       		.byte	63
 2592 02dc 20       		.byte	32
 2593 02dd 00       		.byte	0
 2594 02de 00       		.byte	0
 2595 02df 00       		.byte	0
 2596 02e0 00       		.byte	0
 2597 02e1 00       		.byte	0
 2598 02e2 00       		.byte	0
 2599 02e3 F8       		.byte	-8
 2600 02e4 00       		.byte	0
 2601 02e5 00       		.byte	0
 2602 02e6 00       		.byte	0
 2603 02e7 00       		.byte	0
 2604 02e8 00       		.byte	0
 2605 02e9 00       		.byte	0
 2606 02ea 00       		.byte	0
 2607 02eb 33       		.byte	51
 2608 02ec 00       		.byte	0
 2609 02ed 00       		.byte	0
 2610 02ee 00       		.byte	0
 2611 02ef 00       		.byte	0
 2612 02f0 00       		.byte	0
 2613 02f1 00       		.byte	0
 2614 02f2 00       		.byte	0
 2615 02f3 F8       		.byte	-8
 2616 02f4 00       		.byte	0
 2617 02f5 00       		.byte	0
 2618 02f6 00       		.byte	0
 2619 02f7 00       		.byte	0
 2620 02f8 00       		.byte	0
 2621 02f9 00       		.byte	0
 2622 02fa 00       		.byte	0
 2623 02fb 33       		.byte	51
 2624 02fc 00       		.byte	0
 2625 02fd 00       		.byte	0
 2626 02fe 00       		.byte	0
 2627 02ff 00       		.byte	0
 2628 0300 00       		.byte	0
 2629 0301 00       		.byte	0
 2630 0302 00       		.byte	0
 2631 0303 00       		.byte	0
 2632 0304 00       		.byte	0
 2633 0305 00       		.byte	0
 2634 0306 00       		.byte	0
 2635 0307 00       		.byte	0
 2636 0308 00       		.byte	0
 2637 0309 00       		.byte	0
 2638 030a 00       		.byte	0
ARM GAS  /var/folders/9t/hshg14bj4r3bdmp8s0pp3jdw0000gn/T//ccxmgz9n.s 			page 54


 2639 030b 00       		.byte	0
 2640 030c 00       		.byte	0
 2641 030d 00       		.byte	0
 2642 030e 00       		.byte	0
 2643 030f 00       		.byte	0
 2644 0310 00       		.byte	0
 2645 0311 00       		.byte	0
 2646 0312 00       		.byte	0
 2647 0313 00       		.byte	0
 2648 0314 00       		.byte	0
 2649 0315 00       		.byte	0
 2650 0316 00       		.byte	0
 2651 0317 00       		.byte	0
 2652 0318 00       		.byte	0
 2653 0319 00       		.byte	0
 2654 031a 00       		.byte	0
 2655 031b 00       		.byte	0
 2656 031c 00       		.byte	0
 2657 031d 00       		.byte	0
 2658 031e 00       		.byte	0
 2659 031f 00       		.byte	0
 2660 0320 00       		.byte	0
 2661 0321 00       		.byte	0
 2662 0322 00       		.byte	0
 2663 0323 00       		.byte	0
 2664 0324 00       		.byte	0
 2665 0325 00       		.byte	0
 2666 0326 00       		.byte	0
 2667 0327 00       		.byte	0
 2668 0328 00       		.byte	0
 2669 0329 00       		.byte	0
 2670 032a 00       		.byte	0
 2671 032b 00       		.byte	0
 2672 032c 00       		.byte	0
 2673 032d 00       		.byte	0
 2674 032e 00       		.byte	0
 2675 032f 00       		.byte	0
 2676 0330 00       		.byte	0
 2677 0331 00       		.byte	0
 2678 0332 00       		.byte	0
 2679 0333 00       		.byte	0
 2680 0334 00       		.byte	0
 2681 0335 00       		.byte	0
 2682 0336 00       		.byte	0
 2683 0337 00       		.byte	0
 2684 0338 00       		.byte	0
 2685 0339 00       		.byte	0
 2686 033a 00       		.byte	0
 2687 033b 00       		.byte	0
 2688 033c 00       		.byte	0
 2689 033d 00       		.byte	0
 2690 033e 00       		.byte	0
 2691 033f 00       		.byte	0
 2692 0340 00       		.byte	0
 2693 0341 00       		.byte	0
 2694 0342 00       		.byte	0
 2695 0343 00       		.byte	0
ARM GAS  /var/folders/9t/hshg14bj4r3bdmp8s0pp3jdw0000gn/T//ccxmgz9n.s 			page 55


 2696 0344 00       		.byte	0
 2697 0345 00       		.byte	0
 2698 0346 00       		.byte	0
 2699 0347 00       		.byte	0
 2700 0348 00       		.byte	0
 2701 0349 00       		.byte	0
 2702 034a 00       		.byte	0
 2703 034b 00       		.byte	0
 2704 034c 00       		.byte	0
 2705 034d 00       		.byte	0
 2706 034e 00       		.byte	0
 2707 034f 00       		.byte	0
 2708 0350 00       		.byte	0
 2709 0351 00       		.byte	0
 2710 0352 00       		.byte	0
 2711 0353 00       		.byte	0
 2712 0354 00       		.byte	0
 2713 0355 00       		.byte	0
 2714 0356 00       		.byte	0
 2715 0357 00       		.byte	0
 2716 0358 00       		.byte	0
 2717 0359 00       		.byte	0
 2718 035a 00       		.byte	0
 2719 035b 00       		.byte	0
 2720 035c 00       		.byte	0
 2721 035d 00       		.byte	0
 2722 035e 00       		.byte	0
 2723 035f 00       		.byte	0
 2724 0360 00       		.byte	0
 2725 0361 00       		.byte	0
 2726 0362 00       		.byte	0
 2727 0363 00       		.byte	0
 2728 0364 00       		.byte	0
 2729 0365 00       		.byte	0
 2730 0366 00       		.byte	0
 2731 0367 00       		.byte	0
 2732 0368 00       		.byte	0
 2733 0369 00       		.byte	0
 2734 036a 00       		.byte	0
 2735 036b 00       		.byte	0
 2736 036c 00       		.byte	0
 2737 036d 00       		.byte	0
 2738 036e 00       		.byte	0
 2739 036f 00       		.byte	0
 2740 0370 00       		.byte	0
 2741 0371 00       		.byte	0
 2742 0372 00       		.byte	0
 2743 0373 00       		.byte	0
 2744 0374 00       		.byte	0
 2745 0375 00       		.byte	0
 2746 0376 00       		.byte	0
 2747 0377 00       		.byte	0
 2748 0378 00       		.byte	0
 2749 0379 00       		.byte	0
 2750 037a 00       		.byte	0
 2751 037b 00       		.byte	0
 2752 037c 00       		.byte	0
ARM GAS  /var/folders/9t/hshg14bj4r3bdmp8s0pp3jdw0000gn/T//ccxmgz9n.s 			page 56


 2753 037d 00       		.byte	0
 2754 037e 00       		.byte	0
 2755 037f 00       		.byte	0
 2756 0380 00       		.byte	0
 2757 0381 00       		.byte	0
 2758 0382 00       		.byte	0
 2759 0383 00       		.byte	0
 2760 0384 00       		.byte	0
 2761 0385 00       		.byte	0
 2762 0386 00       		.byte	0
 2763 0387 00       		.byte	0
 2764 0388 00       		.byte	0
 2765 0389 00       		.byte	0
 2766 038a 00       		.byte	0
 2767 038b 00       		.byte	0
 2768 038c 00       		.byte	0
 2769 038d 00       		.byte	0
 2770 038e 00       		.byte	0
 2771 038f 00       		.byte	0
 2772 0390 00       		.byte	0
 2773 0391 00       		.byte	0
 2774 0392 00       		.byte	0
 2775 0393 00       		.byte	0
 2776 0394 00       		.byte	0
 2777 0395 00       		.byte	0
 2778 0396 00       		.byte	0
 2779 0397 00       		.byte	0
 2780 0398 00       		.byte	0
 2781 0399 00       		.byte	0
 2782 039a 00       		.byte	0
 2783 039b 00       		.byte	0
 2784 039c 00       		.byte	0
 2785 039d 00       		.byte	0
 2786 039e 00       		.byte	0
 2787 039f 00       		.byte	0
 2788 03a0 00       		.byte	0
 2789 03a1 00       		.byte	0
 2790 03a2 00       		.byte	0
 2791 03a3 00       		.byte	0
 2792 03a4 00       		.byte	0
 2793 03a5 00       		.byte	0
 2794 03a6 00       		.byte	0
 2795 03a7 00       		.byte	0
 2796 03a8 00       		.byte	0
 2797 03a9 00       		.byte	0
 2798 03aa 00       		.byte	0
 2799 03ab 00       		.byte	0
 2800 03ac 00       		.byte	0
 2801 03ad 00       		.byte	0
 2802 03ae 00       		.byte	0
 2803 03af 00       		.byte	0
 2804 03b0 00       		.byte	0
 2805 03b1 00       		.byte	0
 2806 03b2 00       		.byte	0
 2807 03b3 00       		.byte	0
 2808 03b4 00       		.byte	0
 2809 03b5 00       		.byte	0
ARM GAS  /var/folders/9t/hshg14bj4r3bdmp8s0pp3jdw0000gn/T//ccxmgz9n.s 			page 57


 2810 03b6 00       		.byte	0
 2811 03b7 00       		.byte	0
 2812 03b8 00       		.byte	0
 2813 03b9 00       		.byte	0
 2814 03ba 00       		.byte	0
 2815 03bb 00       		.byte	0
 2816 03bc 00       		.byte	0
 2817 03bd 00       		.byte	0
 2818 03be 00       		.byte	0
 2819 03bf 00       		.byte	0
 2820 03c0 00       		.byte	0
 2821 03c1 00       		.byte	0
 2822 03c2 00       		.byte	0
 2823 03c3 00       		.byte	0
 2824 03c4 00       		.byte	0
 2825 03c5 00       		.byte	0
 2826 03c6 00       		.byte	0
 2827 03c7 00       		.byte	0
 2828 03c8 00       		.byte	0
 2829 03c9 00       		.byte	0
 2830 03ca 00       		.byte	0
 2831 03cb 00       		.byte	0
 2832 03cc 00       		.byte	0
 2833 03cd 00       		.byte	0
 2834 03ce 00       		.byte	0
 2835 03cf 00       		.byte	0
 2836 03d0 00       		.byte	0
 2837 03d1 00       		.byte	0
 2838 03d2 00       		.byte	0
 2839 03d3 00       		.byte	0
 2840 03d4 00       		.byte	0
 2841 03d5 00       		.byte	0
 2842 03d6 00       		.byte	0
 2843 03d7 00       		.byte	0
 2844 03d8 00       		.byte	0
 2845 03d9 00       		.byte	0
 2846 03da 00       		.byte	0
 2847 03db 00       		.byte	0
 2848 03dc 00       		.byte	0
 2849 03dd 00       		.byte	0
 2850 03de 00       		.byte	0
 2851 03df 00       		.byte	0
 2852 03e0 00       		.byte	0
 2853 03e1 00       		.byte	0
 2854 03e2 00       		.byte	0
 2855 03e3 00       		.byte	0
 2856 03e4 00       		.byte	0
 2857 03e5 00       		.byte	0
 2858 03e6 00       		.byte	0
 2859 03e7 00       		.byte	0
 2860 03e8 00       		.byte	0
 2861 03e9 00       		.byte	0
 2862 03ea 00       		.byte	0
 2863 03eb 00       		.byte	0
 2864 03ec 00       		.byte	0
 2865 03ed 00       		.byte	0
 2866 03ee 00       		.byte	0
ARM GAS  /var/folders/9t/hshg14bj4r3bdmp8s0pp3jdw0000gn/T//ccxmgz9n.s 			page 58


 2867 03ef 00       		.byte	0
 2868 03f0 00       		.byte	0
 2869 03f1 00       		.byte	0
 2870 03f2 00       		.byte	0
 2871 03f3 00       		.byte	0
 2872 03f4 00       		.byte	0
 2873 03f5 00       		.byte	0
 2874 03f6 00       		.byte	0
 2875 03f7 00       		.byte	0
 2876 03f8 00       		.byte	0
 2877 03f9 00       		.byte	0
 2878 03fa 00       		.byte	0
 2879 03fb 00       		.byte	0
 2880 03fc 00       		.byte	0
 2881 03fd 00       		.byte	0
 2882 03fe 00       		.byte	0
 2883 03ff 00       		.byte	0
 2884              		.text
 2885              	.Letext0:
 2886              		.file 2 "/Users/leixiaoxiang/opt/gcc-arm-none-eabi/arm-none-eabi/include/machine/_default_types.h"
 2887              		.file 3 "/Users/leixiaoxiang/opt/gcc-arm-none-eabi/arm-none-eabi/include/sys/_stdint.h"
 2888              		.file 4 "Drivers/CMSIS/Device/ST/STM32F1xx/Include/stm32f103xe.h"
 2889              		.file 5 "/Users/leixiaoxiang/opt/gcc-arm-none-eabi/lib/gcc/arm-none-eabi/5.4.1/include/stddef.h"
 2890              		.file 6 "Drivers/STM32F1xx_HAL_Driver/Inc/stm32f1xx_hal_def.h"
 2891              		.file 7 "Drivers/STM32F1xx_HAL_Driver/Inc/stm32f1xx_hal_gpio.h"
 2892              		.file 8 "Drivers/STM32F1xx_HAL_Driver/Inc/stm32f1xx_hal_dma.h"
 2893              		.file 9 "Drivers/STM32F1xx_HAL_Driver/Inc/stm32f1xx_hal_i2c.h"
 2894              		.file 10 "Drivers/CMSIS/Include/core_cm3.h"
 2895              		.file 11 "Inc/i2c.h"
 2896              		.file 12 "Inc/gpio.h"
 2897              		.file 13 "Drivers/STM32F1xx_HAL_Driver/Inc/stm32f1xx_hal.h"
ARM GAS  /var/folders/9t/hshg14bj4r3bdmp8s0pp3jdw0000gn/T//ccxmgz9n.s 			page 59


DEFINED SYMBOLS
                            *ABS*:0000000000000000 oled_i2c.c
/var/folders/9t/hshg14bj4r3bdmp8s0pp3jdw0000gn/T//ccxmgz9n.s:20     .text.OLED_Init:0000000000000000 $t
/var/folders/9t/hshg14bj4r3bdmp8s0pp3jdw0000gn/T//ccxmgz9n.s:25     .text.OLED_Init:0000000000000000 OLED_Init
/var/folders/9t/hshg14bj4r3bdmp8s0pp3jdw0000gn/T//ccxmgz9n.s:107    .text.OLED_Init:000000000000005c $d
/var/folders/9t/hshg14bj4r3bdmp8s0pp3jdw0000gn/T//ccxmgz9n.s:114    .text.display_ctrl:0000000000000000 $t
/var/folders/9t/hshg14bj4r3bdmp8s0pp3jdw0000gn/T//ccxmgz9n.s:119    .text.display_ctrl:0000000000000000 display_ctrl
/var/folders/9t/hshg14bj4r3bdmp8s0pp3jdw0000gn/T//ccxmgz9n.s:546    .text.display_ctrl:0000000000000364 $d
/var/folders/9t/hshg14bj4r3bdmp8s0pp3jdw0000gn/T//ccxmgz9n.s:561    .text.display_ctrl:0000000000000398 $t
/var/folders/9t/hshg14bj4r3bdmp8s0pp3jdw0000gn/T//ccxmgz9n.s:609    .text.display_ctrl:00000000000003e4 $d
/var/folders/9t/hshg14bj4r3bdmp8s0pp3jdw0000gn/T//ccxmgz9n.s:615    .rodata:0000000000000000 $d
/var/folders/9t/hshg14bj4r3bdmp8s0pp3jdw0000gn/T//ccxmgz9n.s:647    .rodata.number:0000000000000000 $d
/var/folders/9t/hshg14bj4r3bdmp8s0pp3jdw0000gn/T//ccxmgz9n.s:651    .rodata.number:0000000000000000 number
/var/folders/9t/hshg14bj4r3bdmp8s0pp3jdw0000gn/T//ccxmgz9n.s:816    .bss.err_2.6480:0000000000000000 err_2.6480
/var/folders/9t/hshg14bj4r3bdmp8s0pp3jdw0000gn/T//ccxmgz9n.s:817    .bss.err_2.6480:0000000000000000 $d
/var/folders/9t/hshg14bj4r3bdmp8s0pp3jdw0000gn/T//ccxmgz9n.s:822    .bss.err_1.6479:0000000000000000 err_1.6479
/var/folders/9t/hshg14bj4r3bdmp8s0pp3jdw0000gn/T//ccxmgz9n.s:823    .bss.err_1.6479:0000000000000000 $d
/var/folders/9t/hshg14bj4r3bdmp8s0pp3jdw0000gn/T//ccxmgz9n.s:825    .data.array1:0000000000000000 $d
/var/folders/9t/hshg14bj4r3bdmp8s0pp3jdw0000gn/T//ccxmgz9n.s:829    .data.array1:0000000000000000 array1
/var/folders/9t/hshg14bj4r3bdmp8s0pp3jdw0000gn/T//ccxmgz9n.s:1855   .data.array2:0000000000000000 $d
/var/folders/9t/hshg14bj4r3bdmp8s0pp3jdw0000gn/T//ccxmgz9n.s:1859   .data.array2:0000000000000000 array2
                     .debug_frame:0000000000000010 $d

UNDEFINED SYMBOLS
HAL_Delay
HAL_I2C_Mem_Write
hi2c1
hi2c2
MX_GPIO1_TEST_Error
MX_GPIO2_TEST_Error
beer_flag
